(lp0
(S'acceptor_SUITE:all/0'
p1
S'/Users/artemeff/Work/lapka/monitoring/deps/ranch/test/acceptor_SUITE.erl'
p2
I57
tp3
a(S'acceptor_SUITE:end_per_group/2'
p4
g2
I104
tp5
a(S'acceptor_SUITE:end_per_suite/1'
p6
g2
I91
tp7
a(S'acceptor_SUITE:groups/0'
p8
g2
I60
tp9
a(S'acceptor_SUITE:init_per_group/2'
p10
g2
I95
tp11
a(S'acceptor_SUITE:init_per_suite/1'
p12
g2
I87
tp13
a(S'acceptor_SUITE:misc_bad_transport/1'
p14
g2
I115
tp15
a(S'acceptor_SUITE:ssl_accept_error/1'
p16
g2
I123
tp17
a(S'acceptor_SUITE:ssl_accept_socket/1'
p18
g2
I143
tp19
a(S'acceptor_SUITE:ssl_active_echo/1'
p20
g2
I165
tp21
a(S'acceptor_SUITE:ssl_echo/1'
p22
g2
I183
tp23
a(S'acceptor_SUITE:supervisor_clean_child_restart/1'
p24
g2
I424
tp25
a(S'acceptor_SUITE:supervisor_clean_conns_sup_restart/1'
p26
g2
I522
tp27
a(S'acceptor_SUITE:supervisor_clean_restart/1'
p28
g2
I390
tp29
a(S'acceptor_SUITE:supervisor_conns_alive/1'
p30
g2
I463
tp31
a(S'acceptor_SUITE:supervisor_server_recover_state/1'
p32
g2
I493
tp33
a(S'acceptor_SUITE:tcp_accept_socket/1'
p34
g2
I203
tp35
a(S'acceptor_SUITE:tcp_active_echo/1'
p36
g2
I228
tp37
a(S'acceptor_SUITE:tcp_clean_set_max_connections/1'
p38
g2
I335
tp39
a(S'acceptor_SUITE:tcp_echo/1'
p40
g2
I243
tp41
a(S'acceptor_SUITE:tcp_infinity_max_connections/1'
p42
g2
I315
tp43
a(S'acceptor_SUITE:tcp_inherit_options/1'
p44
g2
I375
tp45
a(S'acceptor_SUITE:tcp_max_connections/1'
p46
g2
I258
tp47
a(S'acceptor_SUITE:tcp_max_connections_and_beyond/1'
p48
g2
I270
tp49
a(S'acceptor_SUITE:tcp_set_max_connections/1'
p50
g2
I300
tp51
a(S'acceptor_SUITE:tcp_upgrade/1'
p52
g2
I362
tp53
a(S'active_echo_protocol:init/4'
p54
S'/Users/artemeff/Work/lapka/monitoring/deps/ranch/test/active_echo_protocol.erl'
p55
I11
tp56
a(S'active_echo_protocol:start_link/4'
p57
g55
I7
tp58
a(S'apgsql:bind/3'
p59
S'/Users/artemeff/Work/lapka/monitoring/deps/epgsql/src/apgsql.erl'
p60
I71
tp61
a(S'apgsql:bind/4'
p62
g60
I75
tp63
a(S'apgsql:cancel/1'
p64
g60
I111
tp65
a(S'apgsql:close/1'
p66
g60
I43
tp67
a(S'apgsql:close/2'
p68
g60
I101
tp69
a(S'apgsql:close/3'
p70
g60
I104
tp71
a(S'apgsql:connect/2'
p72
g60
I27
tp73
a(S'apgsql:connect/3'
p74
g60
I30
tp75
a(S'apgsql:connect/4'
p76
g60
I33
tp77
a(S'apgsql:connect/5'
p78
g60
I39
tp79
a(S'apgsql:describe/2'
p80
g60
I92
tp81
a(S'apgsql:describe/3'
p82
g60
I95
tp83
a(S'apgsql:equery/2'
p84
g60
I54
tp85
a(S'apgsql:equery/3'
p86
g60
I58
tp87
a(S'apgsql:execute/2'
p88
g60
I78
tp89
a(S'apgsql:execute/3'
p90
g60
I81
tp91
a(S'apgsql:execute/4'
p92
g60
I85
tp93
a(S'apgsql:execute_batch/2'
p94
g60
I89
tp95
a(S'apgsql:get_parameter/2'
p96
g60
I47
tp97
a(S'apgsql:parse/2'
p98
g60
I61
tp99
a(S'apgsql:parse/3'
p100
g60
I64
tp101
a(S'apgsql:parse/4'
p102
g60
I68
tp103
a(S'apgsql:squery/2'
p104
g60
I51
tp105
a(S'apgsql:start_link/0'
p106
g60
I24
tp107
a(S'apgsql:sync/1'
p108
g60
I107
tp109
a(S'api_app:start/2'
p110
S'/Users/artemeff/Work/lapka/monitoring/apps/api/src/api_app.erl'
p111
I8
tp112
a(S'api_app:stop/1'
p113
g111
I19
tp114
a(S'api_db:broadcast/2'
p115
S'/Users/artemeff/Work/lapka/monitoring/apps/api/src/api_db.erl'
p116
I32
tp117
a(S'api_db:code_change/3'
p118
g116
I80
tp119
a(S'api_db:enter/2'
p120
g116
I37
tp121
a(S'api_db:handle_call/3'
p122
g116
I50
tp123
a(S'api_db:handle_cast/2'
p124
g116
I73
tp125
a(S'api_db:handle_info/2'
p126
g116
I75
tp127
a(S'api_db:info/1'
p128
g116
I22
tp129
a(S'api_db:init/1'
p130
g116
I46
tp131
a(S'api_db:leave/2'
p132
g116
I27
tp133
a(S'api_db:terminate/2'
p134
g116
I78
tp135
a(S'api_sup:init/1'
p136
S'/Users/artemeff/Work/lapka/monitoring/apps/api/src/api_sup.erl'
p137
I11
tp138
a(S'api_sup:start_link/0'
p139
g137
I8
tp140
a(S'application_master:get_child/1'
p141
S'/Users/artemeff/Work/lapka/monitoring/deps/gproc/patches/kernel/application_master.erl'
p142
I68
tp143
a(S'application_master:init/4'
p144
g142
I120
tp145
a(S'application_master:start_it/4'
p146
g142
I251
tp147
a(S'application_master:start_link/2'
p148
g142
I39
tp149
a(S'application_master:start_type/0'
p150
g142
I44
tp151
a(S'application_master:stop/1'
p152
g142
I61
tp153
a(S'basic:run/2'
p154
S'/Users/artemeff/Work/lapka/monitoring/deps/merl/examples/basic.erl'
p155
I25
tp156
a(S'basic_test:basic_fib/1'
p157
S'/Users/artemeff/Work/lapka/monitoring/deps/merl/examples/basic_test.erl'
p158
I64
tp159
a(S'basicc:bool/1'
p160
S'/Users/artemeff/Work/lapka/monitoring/deps/merl/examples/basicc.erl'
p161
I148
tp162
a(S'basicc:make_lines/1'
p163
g161
I31
tp164
a(S'basicc:run/2'
p165
g161
I27
tp166
a(S'binomial_heap:delete/1'
p167
S'/Users/artemeff/Work/lapka/monitoring/deps/eunit_formatters/src/binomial_heap.erl'
p168
I44
tp169
a(S'binomial_heap:insert/2'
p170
g168
I21
tp171
a(S'binomial_heap:insert/3'
p172
g168
I25
tp173
a(S'binomial_heap:merge/2'
p174
g168
I30
tp175
a(S'binomial_heap:new/0'
p176
g168
I16
tp177
a(S'binomial_heap:size/1'
p178
g168
I73
tp179
a(S'binomial_heap:take/2'
p180
g168
I61
tp181
a(S'binomial_heap:to_list/1'
p182
g168
I50
tp183
a(S'blocktrans_extractor:extract/1'
p184
S'/Users/artemeff/Work/lapka/monitoring/deps/erlydtl/src/i18n/blocktrans_extractor.erl'
p185
I7
tp186
a(S'blocktrans_parser:parse/1'
p187
S'/Users/artemeff/Work/lapka/monitoring/deps/erlydtl/src/i18n/blocktrans_parser.erl'
p188
I5
tp189
a(S'blocktrans_scanner:scan/1'
p190
S'/Users/artemeff/Work/lapka/monitoring/deps/erlydtl/src/i18n/blocktrans_scanner.erl'
p191
I7
tp192
a(S'bullet_handler:handle/2'
p193
S'/Users/artemeff/Work/lapka/monitoring/deps/bullet/src/bullet_handler.erl'
p194
I84
tp195
a(S'bullet_handler:info/3'
p196
g194
I0
tp197
a(S'bullet_handler:init/3'
p198
g194
I38
tp199
a(S'bullet_handler:terminate/3'
p200
g194
I120
tp201
a(S'bullet_handler:websocket_handle/3'
p202
g194
I151
tp203
a(S'bullet_handler:websocket_info/3'
p204
g194
I0
tp205
a(S'bullet_handler:websocket_init/3'
p206
g194
I127
tp207
a(S'bullet_handler:websocket_terminate/3'
p208
g194
I0
tp209
a(S'check_tcp_options:init/3'
p210
S'/Users/artemeff/Work/lapka/monitoring/deps/ranch/test/check_tcp_options.erl'
p211
I13
tp212
a(S'check_tcp_options:start_link/4'
p213
g211
I7
tp214
a(S'chunked_hello_world_app:start/2'
p215
S'/Users/artemeff/Work/lapka/monitoring/deps/cowboy/examples/chunked_hello_world/src/chunked_hello_world_app.erl'
p216
I13
tp217
a(S'chunked_hello_world_app:stop/1'
p218
g216
I24
tp219
a(S'chunked_hello_world_sup:init/1'
p220
S'/Users/artemeff/Work/lapka/monitoring/deps/cowboy/examples/chunked_hello_world/src/chunked_hello_world_sup.erl'
p221
I21
tp222
a(S'chunked_hello_world_sup:start_link/0'
p223
g221
I16
tp224
a(S'clock:start/0'
p225
S'/Users/artemeff/Work/lapka/monitoring/deps/bullet/examples/clock/src/clock.erl'
p226
I22
tp227
a(S'clock_app:start/2'
p228
S'/Users/artemeff/Work/lapka/monitoring/deps/bullet/examples/clock/src/clock_app.erl'
p229
I13
tp230
a(S'clock_app:stop/1'
p231
g229
I26
tp232
a(S'clock_sup:init/1'
p233
S'/Users/artemeff/Work/lapka/monitoring/deps/bullet/examples/clock/src/clock_sup.erl'
p234
I21
tp235
a(S'clock_sup:start_link/0'
p236
g234
I16
tp237
a(S'compress_response_app:start/2'
p238
S'/Users/artemeff/Work/lapka/monitoring/deps/cowboy/examples/compress_response/src/compress_response_app.erl'
p239
I13
tp240
a(S'compress_response_app:stop/1'
p241
g239
I25
tp242
a(S'compress_response_sup:init/1'
p243
S'/Users/artemeff/Work/lapka/monitoring/deps/cowboy/examples/compress_response/src/compress_response_sup.erl'
p244
I21
tp245
a(S'compress_response_sup:start_link/0'
p246
g244
I16
tp247
a(S'cookie_app:start/2'
p248
S'/Users/artemeff/Work/lapka/monitoring/deps/cowboy/examples/cookie/src/cookie_app.erl'
p249
I13
tp250
a(S'cookie_app:stop/1'
p251
g249
I24
tp252
a(S'cookie_sup:init/1'
p253
S'/Users/artemeff/Work/lapka/monitoring/deps/cowboy/examples/cookie/src/cookie_sup.erl'
p254
I21
tp255
a(S'cookie_sup:start_link/0'
p256
g254
I16
tp257
a(S'cow_cookie:parse_cookie/1'
p258
S'/Users/artemeff/Work/lapka/monitoring/deps/cowlib/src/cow_cookie.erl'
p259
I29
tp260
a(S'cow_cookie:setcookie/3'
p261
g259
I173
tp262
a(S'cow_date:rfc2109/1'
p263
S'/Users/artemeff/Work/lapka/monitoring/deps/cowlib/src/cow_date.erl'
p264
I22
tp265
a(S'cow_http:parse_fullhost/1'
p266
S'/Users/artemeff/Work/lapka/monitoring/deps/cowlib/src/cow_http.erl'
p267
I209
tp268
a(S'cow_http:parse_fullpath/1'
p269
g267
I244
tp270
a(S'cow_http:parse_headers/1'
p271
g267
I113
tp272
a(S'cow_http:parse_status_line/1'
p273
g267
I37
tp274
a(S'cow_http:parse_version/1'
p275
g267
I269
tp276
a(S'cow_http:request/4'
p277
g267
I284
tp278
a(S'cow_http:version/1'
p279
g267
I268
tp280
a(S'cow_http_hd:parse_connection/1'
p281
S'/Users/artemeff/Work/lapka/monitoring/deps/cowlib/src/cow_http_hd.erl'
p282
I26
tp283
a(S'cow_http_hd:parse_content_length/1'
p284
g282
I66
tp285
a(S'cow_http_hd:parse_transfer_encoding/1'
p286
g282
I108
tp287
a(S'cow_http_te:chunk/1'
p288
S'/Users/artemeff/Work/lapka/monitoring/deps/cowlib/src/cow_http_te.erl'
p289
I212
tp290
a(S'cow_http_te:identity/1'
p291
g289
I74
tp292
a(S'cow_http_te:last_chunk/0'
p293
g289
I219
tp294
a(S'cow_http_te:stream_chunked/2'
p295
g289
I136
tp296
a(S'cow_http_te:stream_identity/2'
p297
g289
I62
tp298
a(S'cow_mimetypes:all/1'
p299
S'/Users/artemeff/Work/lapka/monitoring/deps/cowlib/src/cow_mimetypes.erl'
p300
I23
tp301
a(S'cow_mimetypes:web/1'
p302
g300
I32
tp303
a(S'cow_multipart:boundary/0'
p304
S'/Users/artemeff/Work/lapka/monitoring/deps/cowlib/src/cow_multipart.erl'
p305
I349
tp306
a(S'cow_multipart:close/1'
p307
g305
I378
tp308
a(S'cow_multipart:first_part/2'
p309
g305
I359
tp310
a(S'cow_multipart:form_data/1'
p311
g305
I454
tp312
a(S'cow_multipart:parse_body/2'
p313
g305
I209
tp314
a(S'cow_multipart:parse_content_disposition/1'
p315
g305
I497
tp316
a(S'cow_multipart:parse_content_transfer_encoding/1'
p317
g305
I560
tp318
a(S'cow_multipart:parse_content_type/1'
p319
g305
I591
tp320
a(S'cow_multipart:parse_headers/2'
p321
g305
I97
tp322
a(S'cow_multipart:part/2'
p323
g305
I326
tp324
a(S'cow_qs:parse_qs/1'
p325
S'/Users/artemeff/Work/lapka/monitoring/deps/cowlib/src/cow_qs.erl'
p326
I31
tp327
a(S'cow_qs:qs/1'
p328
g326
I30
tp329
a(S'cow_qs:urldecode/1'
p330
g326
I332
tp331
a(S'cow_qs:urlencode/1'
p332
g326
I432
tp333
a(S'cow_spdy:data/3'
p334
S'/Users/artemeff/Work/lapka/monitoring/deps/cowlib/src/cow_spdy.erl'
p335
I190
tp336
a(S'cow_spdy:deflate_init/0'
p337
g335
I40
tp338
a(S'cow_spdy:goaway/2'
p339
g335
I243
tp340
a(S'cow_spdy:inflate_init/0'
p341
g335
I46
tp342
a(S'cow_spdy:parse/2'
p343
g335
I61
tp344
a(S'cow_spdy:ping/1'
p345
g335
I240
tp346
a(S'cow_spdy:rst_stream/2'
p347
g335
I221
tp348
a(S'cow_spdy:split/1'
p349
g335
I58
tp350
a(S'cow_spdy:syn_reply/6'
p351
g335
I211
tp352
a(S'cow_spdy:syn_stream/12'
p353
g335
I0
tp354
a(S'cowboy:set_env/3'
p355
S'/Users/artemeff/Work/lapka/monitoring/deps/cowboy/src/cowboy.erl'
p356
I70
tp357
a(S'cowboy:start_http/4'
p358
g356
I0
tp359
a(S'cowboy:start_https/4'
p360
g356
I0
tp361
a(S'cowboy:start_spdy/4'
p362
g356
I0
tp363
a(S'cowboy:stop_listener/1'
p364
g356
I66
tp365
a(S'cowboy_app:start/2'
p366
S'/Users/artemeff/Work/lapka/monitoring/deps/cowboy/src/cowboy_app.erl'
p367
I22
tp368
a(S'cowboy_app:stop/1'
p369
g367
I26
tp370
a(S'cowboy_bstr:capitalize_token/1'
p371
S'/Users/artemeff/Work/lapka/monitoring/deps/cowboy/src/cowboy_bstr.erl'
p372
I32
tp373
a(S'cowboy_bstr:char_to_lower/1'
p374
g372
I52
tp375
a(S'cowboy_bstr:char_to_upper/1'
p376
g372
I81
tp377
a(S'cowboy_bstr:to_lower/1'
p378
g372
I44
tp379
a(S'cowboy_bstr:to_upper/1'
p380
g372
I48
tp381
a(S'cowboy_clock:code_change/3'
p382
S'/Users/artemeff/Work/lapka/monitoring/deps/cowboy/src/cowboy_clock.erl'
p383
I99
tp384
a(S'cowboy_clock:handle_call/3'
p385
g383
I75
tp386
a(S'cowboy_clock:handle_cast/2'
p387
g383
I82
tp388
a(S'cowboy_clock:handle_info/2'
p389
g383
I86
tp390
a(S'cowboy_clock:init/1'
p391
g383
I63
tp392
a(S'cowboy_clock:rfc1123/0'
p393
g383
I53
tp394
a(S'cowboy_clock:rfc1123/1'
p395
g383
I57
tp396
a(S'cowboy_clock:start_link/0'
p397
g383
I45
tp398
a(S'cowboy_clock:stop/0'
p399
g383
I49
tp400
a(S'cowboy_clock:terminate/2'
p401
g383
I95
tp402
a(S'cowboy_ct_hook:init/2'
p403
S'/Users/artemeff/Work/lapka/monitoring/deps/cowboy/test/cowboy_ct_hook.erl'
p404
I19
tp405
a(S'cowboy_error_h:code_change/3'
p406
S'/Users/artemeff/Work/lapka/monitoring/deps/cowboy/test/cowboy_error_h.erl'
p407
I120
tp408
a(S'cowboy_error_h:handle_call/2'
p409
g407
I108
tp410
a(S'cowboy_error_h:handle_event/2'
p411
g407
I42
tp412
a(S'cowboy_error_h:handle_info/2'
p413
g407
I113
tp414
a(S'cowboy_error_h:ignore/3'
p415
g407
I32
tp416
a(S'cowboy_error_h:init/1'
p417
g407
I37
tp418
a(S'cowboy_error_h:terminate/2'
p419
g407
I116
tp420
a(S'cowboy_handler:execute/2'
p421
S'/Users/artemeff/Work/lapka/monitoring/deps/cowboy/src/cowboy_handler.erl'
p422
I49
tp423
a(S'cowboy_handler:handler_loop/4'
p424
g422
I0
tp425
a(S'cowboy_http:asctime_date/1'
p426
S'/Users/artemeff/Work/lapka/monitoring/deps/cowboy/src/cowboy_http.erl'
p427
I412
tp428
a(S'cowboy_http:authorization/2'
p429
g427
I713
tp430
a(S'cowboy_http:ce_identity/1'
p431
g427
I856
tp432
a(S'cowboy_http:conneg/2'
p433
g427
I205
tp434
a(S'cowboy_http:content_type/1'
p435
g427
I84
tp436
a(S'cowboy_http:digits/1'
p437
g427
I577
tp438
a(S'cowboy_http:entity_tag_match/1'
p439
g427
I280
tp440
a(S'cowboy_http:expectation/2'
p441
g427
I302
tp442
a(S'cowboy_http:http_date/1'
p443
g427
I351
tp444
a(S'cowboy_http:language_range/2'
p445
g427
I216
tp446
a(S'cowboy_http:list/2'
p447
g427
I47
tp448
a(S'cowboy_http:media_range/2'
p449
g427
I104
tp450
a(S'cowboy_http:nonempty_list/2'
p451
g427
I48
tp452
a(S'cowboy_http:parameterized_tokens/1'
p453
g427
I811
tp454
a(S'cowboy_http:params/2'
p455
g427
I317
tp456
a(S'cowboy_http:quoted_string/2'
p457
g427
I670
tp458
a(S'cowboy_http:range/1'
p459
g427
I756
tp460
a(S'cowboy_http:rfc1123_date/1'
p461
g427
I370
tp462
a(S'cowboy_http:rfc850_date/1'
p463
g427
I393
tp464
a(S'cowboy_http:token/2'
p465
g427
I650
tp466
a(S'cowboy_http:token_ci/2'
p467
g427
I646
tp468
a(S'cowboy_http:whitespace/2'
p469
g427
I573
tp470
a(S'cowboy_protocol:init/4'
p471
S'/Users/artemeff/Work/lapka/monitoring/deps/cowboy/src/cowboy_protocol.erl'
p472
I78
tp473
a(S'cowboy_protocol:parse_request/3'
p474
g472
I141
tp475
a(S'cowboy_protocol:resume/6'
p476
g472
I449
tp477
a(S'cowboy_protocol:start_link/4'
p478
g472
I64
tp479
a(S'cowboy_req:append_buffer/2'
p480
S'/Users/artemeff/Work/lapka/monitoring/deps/cowboy/src/cowboy_req.erl'
p481
I1028
tp482
a(S'cowboy_req:binding/2'
p483
g481
I292
tp484
a(S'cowboy_req:binding/3'
p485
g481
I297
tp486
a(S'cowboy_req:bindings/1'
p487
g481
I304
tp488
a(S'cowboy_req:body/1'
p489
g481
I471
tp490
a(S'cowboy_req:body/2'
p491
g481
I503
tp492
a(S'cowboy_req:body_length/1'
p493
g481
I485
tp494
a(S'cowboy_req:body_qs/1'
p495
g481
I639
tp496
a(S'cowboy_req:body_qs/2'
p497
g481
I647
tp498
a(S'cowboy_req:chunk/2'
p499
g481
I950
tp500
a(S'cowboy_req:chunked_reply/2'
p501
g481
I940
tp502
a(S'cowboy_req:chunked_reply/3'
p503
g481
I945
tp504
a(S'cowboy_req:compact/1'
p505
g481
I1103
tp506
a(S'cowboy_req:continue/1'
p507
g481
I0
tp508
a(S'cowboy_req:cookie/2'
p509
g481
I422
tp510
a(S'cowboy_req:cookie/3'
p511
g481
I427
tp512
a(S'cowboy_req:cookies/1'
p513
g481
I441
tp514
a(S'cowboy_req:delete_resp_header/2'
p515
g481
I799
tp516
a(S'cowboy_req:ensure_response/2'
p517
g481
I1008
tp518
a(S'cowboy_req:get/2'
p519
g481
I1032
tp520
a(S'cowboy_req:has_body/1'
p521
g481
I472
tp522
a(S'cowboy_req:has_resp_body/1'
p523
g481
I788
tp524
a(S'cowboy_req:has_resp_header/2'
p525
g481
I784
tp526
a(S'cowboy_req:header/2'
p527
g481
I309
tp528
a(S'cowboy_req:header/3'
p529
g481
I314
tp530
a(S'cowboy_req:headers/1'
p531
g481
I321
tp532
a(S'cowboy_req:host/1'
p533
g481
I210
tp534
a(S'cowboy_req:host_info/1'
p535
g481
I215
tp536
a(S'cowboy_req:host_url/1'
p537
g481
I261
tp538
a(S'cowboy_req:lock/1'
p539
g481
I1110
tp540
a(S'cowboy_req:maybe_reply/2'
p541
g481
I991
tp542
a(S'cowboy_req:meta/2'
p543
g481
I455
tp544
a(S'cowboy_req:meta/3'
p545
g481
I459
tp546
a(S'cowboy_req:method/1'
p547
g481
I196
tp548
a(S'cowboy_req:new/14'
p549
g481
I0
tp550
a(S'cowboy_req:parse_header/2'
p551
g481
I327
tp552
a(S'cowboy_req:parse_header/3'
p553
g481
I340
tp554
a(S'cowboy_req:part/1'
p555
g481
I662
tp556
a(S'cowboy_req:part_body/1'
p557
g481
I695
tp558
a(S'cowboy_req:part_body/2'
p559
g481
I701
tp560
a(S'cowboy_req:path/1'
p561
g481
I223
tp562
a(S'cowboy_req:path_info/1'
p563
g481
I228
tp564
a(S'cowboy_req:peer/1'
p565
g481
I206
tp566
a(S'cowboy_req:port/1'
p567
g481
I219
tp568
a(S'cowboy_req:qs/1'
p569
g481
I232
tp570
a(S'cowboy_req:qs_val/2'
p571
g481
I237
tp572
a(S'cowboy_req:qs_val/3'
p573
g481
I246
tp574
a(S'cowboy_req:qs_vals/1'
p575
g481
I253
tp576
a(S'cowboy_req:reply/2'
p577
g481
I804
tp578
a(S'cowboy_req:reply/3'
p579
g481
I809
tp580
a(S'cowboy_req:reply/4'
p581
g481
I0
tp582
a(S'cowboy_req:set/2'
p583
g481
I1066
tp584
a(S'cowboy_req:set_bindings/4'
p585
g481
I1096
tp586
a(S'cowboy_req:set_meta/3'
p587
g481
I466
tp588
a(S'cowboy_req:set_resp_body/2'
p589
g481
I763
tp590
a(S'cowboy_req:set_resp_body_fun/2'
p591
g481
I767
tp592
a(S'cowboy_req:set_resp_body_fun/3'
p593
g481
I0
tp594
a(S'cowboy_req:set_resp_cookie/4'
p595
g481
I753
tp596
a(S'cowboy_req:set_resp_header/3'
p597
g481
I759
tp598
a(S'cowboy_req:to_list/1'
p599
g481
I1114
tp600
a(S'cowboy_req:upgrade_reply/3'
p601
g481
I0
tp602
a(S'cowboy_req:url/1'
p603
g481
I260
tp604
a(S'cowboy_req:version/1'
p605
g481
I200
tp606
a(S'cowboy_rest:upgrade/4'
p607
S'/Users/artemeff/Work/lapka/monitoring/deps/cowboy/src/cowboy_rest.erl'
p608
I60
tp609
a(S'cowboy_router:compile/1'
p610
S'/Users/artemeff/Work/lapka/monitoring/deps/cowboy/src/cowboy_router.erl'
p611
I55
tp612
a(S'cowboy_router:execute/2'
p613
g611
I166
tp614
a(S'cowboy_spdy:init/5'
p615
S'/Users/artemeff/Work/lapka/monitoring/deps/cowboy/src/cowboy_spdy.erl'
p616
I94
tp617
a(S'cowboy_spdy:messages/0'
p618
g616
I475
tp619
a(S'cowboy_spdy:name/0'
p620
g616
I471
tp621
a(S'cowboy_spdy:recv/3'
p622
g616
I480
tp623
a(S'cowboy_spdy:reply/4'
p624
g616
I446
tp625
a(S'cowboy_spdy:request_init/11'
p626
g616
I0
tp627
a(S'cowboy_spdy:resume/5'
p628
g616
I430
tp629
a(S'cowboy_spdy:send/2'
p630
g616
I488
tp631
a(S'cowboy_spdy:sendfile/2'
p632
g616
I495
tp633
a(S'cowboy_spdy:setopts/2'
p634
g616
I0
tp635
a(S'cowboy_spdy:start_link/4'
p636
g616
I80
tp637
a(S'cowboy_spdy:stream_close/1'
p638
g616
I464
tp639
a(S'cowboy_spdy:stream_data/2'
p640
g616
I459
tp641
a(S'cowboy_spdy:stream_reply/3'
p642
g616
I454
tp643
a(S'cowboy_spdy:system_code_change/4'
p644
g616
I228
tp645
a(S'cowboy_spdy:system_continue/3'
p646
g616
I220
tp647
a(S'cowboy_spdy:system_terminate/4'
p648
g616
I224
tp649
a(S'cowboy_static:content_types_provided/2'
p650
S'/Users/artemeff/Work/lapka/monitoring/deps/cowboy/src/cowboy_static.erl'
p651
I230
tp652
a(S'cowboy_static:forbidden/2'
p653
g651
I215
tp654
a(S'cowboy_static:generate_etag/2'
p655
g651
I0
tp656
a(S'cowboy_static:get_file/2'
p657
g651
I283
tp658
a(S'cowboy_static:init/3'
p659
g651
I43
tp660
a(S'cowboy_static:last_modified/2'
p661
g651
I274
tp662
a(S'cowboy_static:malformed_request/2'
p663
g651
I206
tp664
a(S'cowboy_static:resource_exists/2'
p665
g651
I245
tp666
a(S'cowboy_static:rest_init/2'
p667
g651
I53
tp668
a(S'cowboy_sup:init/1'
p669
S'/Users/artemeff/Work/lapka/monitoring/deps/cowboy/src/cowboy_sup.erl'
p670
I27
tp671
a(S'cowboy_sup:start_link/0'
p672
g670
I22
tp673
a(S'cowboy_websocket:handler_loop/4'
p674
S'/Users/artemeff/Work/lapka/monitoring/deps/cowboy/src/cowboy_websocket.erl'
p675
I0
tp676
a(S'cowboy_websocket:upgrade/4'
p677
g675
I60
tp678
a(S'crash:code_change/3'
p679
S'/Users/artemeff/Work/lapka/monitoring/deps/lager/test/crash.erl'
p680
I102
tp681
a(S'crash:handle_call/3'
p682
g680
I23
tp683
a(S'crash:handle_cast/2'
p684
g680
I93
tp685
a(S'crash:handle_info/2'
p686
g680
I96
tp687
a(S'crash:init/1'
p688
g680
I20
tp689
a(S'crash:start/0'
p690
g680
I17
tp691
a(S'crash:terminate/2'
p692
g680
I99
tp693
a(S'directory_handler:allowed_methods/2'
p694
S'/Users/artemeff/Work/lapka/monitoring/deps/cowboy/examples/web_server/src/directory_handler.erl'
p695
I23
tp696
a(S'directory_handler:content_types_provided/2'
p697
g695
I32
tp698
a(S'directory_handler:init/3'
p699
g695
I17
tp700
a(S'directory_handler:list_html/2'
p701
g695
I42
tp702
a(S'directory_handler:list_json/2'
p703
g695
I38
tp704
a(S'directory_handler:resource_exists/2'
p705
g695
I26
tp706
a(S'directory_handler:rest_init/2'
p707
g695
I20
tp708
a(S'directory_lister:execute/2'
p709
S'/Users/artemeff/Work/lapka/monitoring/deps/cowboy/examples/web_server/src/directory_lister.erl'
p710
I8
tp711
a(S'echo_get_app:start/2'
p712
S'/Users/artemeff/Work/lapka/monitoring/deps/cowboy/examples/echo_get/src/echo_get_app.erl'
p713
I13
tp714
a(S'echo_get_app:stop/1'
p715
g713
I24
tp716
a(S'echo_get_sup:init/1'
p717
S'/Users/artemeff/Work/lapka/monitoring/deps/cowboy/examples/echo_get/src/echo_get_sup.erl'
p718
I21
tp719
a(S'echo_get_sup:start_link/0'
p720
g718
I16
tp721
a(S'echo_post_app:start/2'
p722
S'/Users/artemeff/Work/lapka/monitoring/deps/cowboy/examples/echo_post/src/echo_post_app.erl'
p723
I13
tp724
a(S'echo_post_app:stop/1'
p725
g723
I24
tp726
a(S'echo_post_sup:init/1'
p727
S'/Users/artemeff/Work/lapka/monitoring/deps/cowboy/examples/echo_post/src/echo_post_sup.erl'
p728
I21
tp729
a(S'echo_post_sup:start_link/0'
p730
g728
I16
tp731
a(S'echo_protocol:init/4'
p732
S'/Users/artemeff/Work/lapka/monitoring/deps/ranch/examples/tcp_echo/src/echo_protocol.erl'
p733
I13
tp734
a(S'echo_protocol:init/4'
p735
S'/Users/artemeff/Work/lapka/monitoring/deps/ranch/test/echo_protocol.erl'
p736
I11
tp737
a(S'echo_protocol:start_link/4'
p738
g733
I9
tp739
a(S'echo_protocol:start_link/4'
p740
g736
I7
tp741
a(S'erlmarkdown:conv/1'
p742
S'/Users/artemeff/Work/lapka/monitoring/deps/cowboy/examples/markdown_middleware/src/erlmarkdown.erl'
p743
I57
tp744
a(S'erlmarkdown:conv_file/2'
p745
g743
I69
tp746
a(S'erlmarkdown:conv_utf8/1'
p747
g743
I64
tp748
a(S'erlydtl:compile/2'
p749
S'/Users/artemeff/Work/lapka/monitoring/deps/erlydtl/src/erlydtl.erl'
p750
I143
tp751
a(S'erlydtl:compile/3'
p752
g750
I159
tp753
a(S'erlydtl:compile_dir/2'
p754
g750
I125
tp755
a(S'erlydtl:compile_dir/3'
p756
g750
I129
tp757
a(S'erlydtl:compile_file/2'
p758
g750
I99
tp759
a(S'erlydtl:compile_file/3'
p760
g750
I103
tp761
a(S'erlydtl:compile_template/2'
p762
g750
I112
tp763
a(S'erlydtl:compile_template/3'
p764
g750
I116
tp765
a(S'erlydtl_beam_compiler:compile/3'
p766
S'/Users/artemeff/Work/lapka/monitoring/deps/erlydtl/src/erlydtl_beam_compiler.erl'
p767
I77
tp768
a(S'erlydtl_beam_compiler:compile_dir/2'
p769
g767
I80
tp770
a(S'erlydtl_beam_compiler:format/1'
p771
g767
I1207
tp772
a(S'erlydtl_beam_compiler:format_error/1'
p773
g767
I83
tp774
a(S'erlydtl_beam_compiler:interpret_args/2'
p775
g767
I1459
tp776
a(S'erlydtl_beam_compiler:is_up_to_date/2'
p777
g767
I319
tp778
a(S'erlydtl_beam_compiler:value_ast/4'
p779
g767
I703
tp780
a(S'erlydtl_compiler:compile_dir/3'
p781
S'/Users/artemeff/Work/lapka/monitoring/deps/erlydtl/src/erlydtl_compiler.erl'
p782
I81
tp783
a(S'erlydtl_compiler:compile_file/3'
p784
g782
I76
tp785
a(S'erlydtl_compiler:compile_template/3'
p786
g782
I66
tp787
a(S'erlydtl_compiler:default_options/0'
p788
g782
I64
tp789
a(S'erlydtl_compiler:do_parse_template/2'
p790
g782
I374
tp791
a(S'erlydtl_compiler:format_error/1'
p792
g782
I87
tp793
a(S'erlydtl_compiler:parse_file/2'
p794
g782
I354
tp795
a(S'erlydtl_compiler:parse_template/2'
p796
g782
I363
tp797
a(S'erlydtl_compiler_utils:add_error/3'
p798
S'/Users/artemeff/Work/lapka/monitoring/deps/erlydtl/src/erlydtl_compiler_utils.erl'
p799
I121
tp800
a(S'erlydtl_compiler_utils:add_errors/2'
p801
g799
I134
tp802
a(S'erlydtl_compiler_utils:add_filters/2'
p803
g799
I265
tp804
a(S'erlydtl_compiler_utils:add_tags/2'
p805
g799
I269
tp806
a(S'erlydtl_compiler_utils:add_warning/3'
p807
g799
I141
tp808
a(S'erlydtl_compiler_utils:add_warnings/2'
p809
g799
I156
tp810
a(S'erlydtl_compiler_utils:begin_scope/1'
p811
g799
I222
tp812
a(S'erlydtl_compiler_utils:begin_scope/2'
p813
g799
I224
tp814
a(S'erlydtl_compiler_utils:call_extension/3'
p815
g799
I163
tp816
a(S'erlydtl_compiler_utils:empty_scope/0'
p817
g799
I231
tp818
a(S'erlydtl_compiler_utils:end_scope/4'
p819
g799
I228
tp820
a(S'erlydtl_compiler_utils:format_error/1'
p821
g799
I300
tp822
a(S'erlydtl_compiler_utils:full_path/2'
p823
g799
I98
tp824
a(S'erlydtl_compiler_utils:get_current_file/1'
p825
g799
I115
tp826
a(S'erlydtl_compiler_utils:init_treewalker/1'
p827
g799
I83
tp828
a(S'erlydtl_compiler_utils:load_library/2'
p829
g799
I238
tp830
a(S'erlydtl_compiler_utils:load_library/3'
p831
g799
I239
tp832
a(S'erlydtl_compiler_utils:load_library/4'
p833
g799
I241
tp834
a(S'erlydtl_compiler_utils:merge_info/2'
p835
g799
I190
tp836
a(S'erlydtl_compiler_utils:pop_auto_escape/1'
p837
g799
I293
tp838
a(S'erlydtl_compiler_utils:print/3'
p839
g799
I104
tp840
a(S'erlydtl_compiler_utils:print/4'
p841
g799
I107
tp842
a(S'erlydtl_compiler_utils:push_auto_escape/2'
p843
g799
I288
tp844
a(S'erlydtl_compiler_utils:push_scope/2'
p845
g799
I210
tp846
a(S'erlydtl_compiler_utils:reset_parse_trail/2'
p847
g799
I233
tp848
a(S'erlydtl_compiler_utils:resolve_variable/2'
p849
g799
I193
tp850
a(S'erlydtl_compiler_utils:resolve_variable/3'
p851
g799
I196
tp852
a(S'erlydtl_compiler_utils:restore_scope/2'
p853
g799
I215
tp854
a(S'erlydtl_compiler_utils:shorten_filename/1'
p855
g799
I274
tp856
a(S'erlydtl_compiler_utils:shorten_filename/2'
p857
g799
I278
tp858
a(S'erlydtl_compiler_utils:to_string/2'
p859
g799
I90
tp860
a(S'erlydtl_compiler_utils:unescape_string_literal/1'
p861
g799
I95
tp862
a(S'erlydtl_contrib_humanize:intcomma/1'
p863
S'/Users/artemeff/Work/lapka/monitoring/deps/erlydtl/src/erlydtl_contrib_humanize.erl'
p864
I5
tp865
a(S'erlydtl_custom_tags:custom1/1'
p866
S'/Users/artemeff/Work/lapka/monitoring/deps/erlydtl/test/erlydtl_custom_tags.erl'
p867
I5
tp868
a(S'erlydtl_custom_tags:custom2/2'
p869
g867
I0
tp870
a(S'erlydtl_custom_tags:custom3/2'
p871
g867
I0
tp872
a(S'erlydtl_custom_tags:custom4/1'
p873
g867
I14
tp874
a(S'erlydtl_dateformat:format/1'
p875
S'/Users/artemeff/Work/lapka/monitoring/deps/erlydtl/src/filter_lib/erlydtl_dateformat.erl'
p876
I47
tp877
a(S'erlydtl_dateformat:format/2'
p878
g876
I57
tp879
a(S'erlydtl_deps:get_base_dir/0'
p880
S'/Users/artemeff/Work/lapka/monitoring/deps/erlydtl/src/erlydtl_deps.erl'
p881
I54
tp882
a(S'erlydtl_deps:get_base_dir/1'
p883
g881
I47
tp884
a(S'erlydtl_eunit_testrunner:run_compile/1'
p885
S'/Users/artemeff/Work/lapka/monitoring/deps/erlydtl/test/erlydtl_eunit_testrunner.erl'
p886
I55
tp887
a(S'erlydtl_eunit_testrunner:run_render/1'
p888
g886
I70
tp889
a(S'erlydtl_eunit_testrunner:run_test/1'
p890
g886
I44
tp891
a(S'erlydtl_filters:add/2'
p892
S'/Users/artemeff/Work/lapka/monitoring/deps/erlydtl/src/erlydtl_filters.erl'
p893
I161
tp894
a(S'erlydtl_filters:addDefaultURI/1'
p895
g893
I1223
tp896
a(S'erlydtl_filters:addslashes/1'
p897
g893
I208
tp898
a(S'erlydtl_filters:capfirst/1'
p899
g893
I216
tp900
a(S'erlydtl_filters:cast_to_float/1'
p901
g893
I714
tp902
a(S'erlydtl_filters:cast_to_integer/1'
p903
g893
I739
tp904
a(S'erlydtl_filters:center/2'
p905
g893
I224
tp906
a(S'erlydtl_filters:cut/2'
p907
g893
I230
tp908
a(S'erlydtl_filters:date/1'
p909
g893
I238
tp910
a(S'erlydtl_filters:date/2'
p911
g893
I246
tp912
a(S'erlydtl_filters:default/2'
p913
g893
I251
tp914
a(S'erlydtl_filters:default_if_none/2'
p915
g893
I258
tp916
a(S'erlydtl_filters:dictsort/2'
p917
g893
I264
tp918
a(S'erlydtl_filters:dictsortreversed/2'
p919
g893
I282
tp920
a(S'erlydtl_filters:divisibleby/2'
p921
g893
I286
tp922
a(S'erlydtl_filters:escapejs/1'
p923
g893
I298
tp924
a(S'erlydtl_filters:filesizeformat/1'
p925
g893
I304
tp926
a(S'erlydtl_filters:first/1'
p927
g893
I216
tp928
a(S'erlydtl_filters:fix_ampersands/1'
p929
g893
I324
tp930
a(S'erlydtl_filters:floatformat/1'
p931
g893
I331
tp932
a(S'erlydtl_filters:floatformat/2'
p933
g893
I337
tp934
a(S'erlydtl_filters:force_escape/1'
p935
g893
I359
tp936
a(S'erlydtl_filters:format_integer/1'
p937
g893
I366
tp938
a(S'erlydtl_filters:format_number/1'
p939
g893
I371
tp940
a(S'erlydtl_filters:get_digit/2'
p941
g893
I381
tp942
a(S'erlydtl_filters:iriencode/1'
p943
g893
I396
tp944
a(S'erlydtl_filters:join/2'
p945
g893
I400
tp946
a(S'erlydtl_filters:last/1'
p947
g893
I404
tp948
a(S'erlydtl_filters:length/1'
p949
g893
I389
tp950
a(S'erlydtl_filters:length_is/2'
p951
g893
I422
tp952
a(S'erlydtl_filters:linebreaks/1'
p953
g893
I428
tp954
a(S'erlydtl_filters:linebreaksbr/1'
p955
g893
I451
tp956
a(S'erlydtl_filters:linenumbers/1'
p957
g893
I457
tp958
a(S'erlydtl_filters:ljust/2'
p959
g893
I472
tp960
a(S'erlydtl_filters:lower/1'
p961
g893
I478
tp962
a(S'erlydtl_filters:make_list/1'
p963
g893
I486
tp964
a(S'erlydtl_filters:phone2numeric/1'
p965
g893
I492
tp966
a(S'erlydtl_filters:pluralize/1'
p967
g893
I503
tp968
a(S'erlydtl_filters:pluralize/2'
p969
g893
I498
tp970
a(S'erlydtl_filters:pprint/1'
p971
g893
I524
tp972
a(S'erlydtl_filters:random/1'
p973
g893
I528
tp974
a(S'erlydtl_filters:random_num/1'
p975
g893
I533
tp976
a(S'erlydtl_filters:random_range/1'
p977
g893
I538
tp978
a(S'erlydtl_filters:removetags/2'
p979
g893
I550
tp980
a(S'erlydtl_filters:rjust/2'
p981
g893
I562
tp982
a(S'erlydtl_filters:round/2'
p983
g893
I354
tp984
a(S'erlydtl_filters:slice/2'
p985
g893
I568
tp986
a(S'erlydtl_filters:slugify/1'
p987
g893
I761
tp988
a(S'erlydtl_filters:stringformat/2'
p989
g893
I576
tp990
a(S'erlydtl_filters:stringformat_io/7'
p991
g893
I0
tp992
a(S'erlydtl_filters:striptags/1'
p993
g893
I707
tp994
a(S'erlydtl_filters:time/1'
p995
g893
I767
tp996
a(S'erlydtl_filters:time/2'
p997
g893
I770
tp998
a(S'erlydtl_filters:timesince/1'
p999
g893
I773
tp1000
a(S'erlydtl_filters:timesince/2'
p1001
g893
I776
tp1002
a(S'erlydtl_filters:timeuntil/1'
p1003
g893
I807
tp1004
a(S'erlydtl_filters:timeuntil/2'
p1005
g893
I810
tp1006
a(S'erlydtl_filters:title/1'
p1007
g893
I814
tp1008
a(S'erlydtl_filters:truncatechars/2'
p1009
g893
I820
tp1010
a(S'erlydtl_filters:truncatewords/2'
p1011
g893
I826
tp1012
a(S'erlydtl_filters:truncatewords_html/2'
p1013
g893
I834
tp1014
a(S'erlydtl_filters:unjoin/2'
p1015
g893
I1262
tp1016
a(S'erlydtl_filters:unordered_list/1'
p1017
g893
I840
tp1018
a(S'erlydtl_filters:upper/1'
p1019
g893
I856
tp1020
a(S'erlydtl_filters:urlencode/1'
p1021
g893
I862
tp1022
a(S'erlydtl_filters:urlencode/2'
p1023
g893
I865
tp1024
a(S'erlydtl_filters:urlize/1'
p1025
g893
I1189
tp1026
a(S'erlydtl_filters:urlize/2'
p1027
g893
I1194
tp1028
a(S'erlydtl_filters:urlizetrunc/2'
p1029
g893
I1220
tp1030
a(S'erlydtl_filters:wordcount/1'
p1031
g893
I871
tp1032
a(S'erlydtl_filters:wordwrap/2'
p1033
g893
I877
tp1034
a(S'erlydtl_filters:yesno/2'
p1035
g893
I883
tp1036
a(S'erlydtl_i18n:translate/2'
p1037
S'/Users/artemeff/Work/lapka/monitoring/deps/erlydtl/src/erlydtl_i18n.erl'
p1038
I17
tp1039
a(S'erlydtl_lib_test1:inventory/1'
p1040
S'/Users/artemeff/Work/lapka/monitoring/deps/erlydtl/test/erlydtl_lib_test1.erl'
p1041
I8
tp1042
a(S'erlydtl_lib_test1:reverse/1'
p1043
g1041
I11
tp1044
a(S'erlydtl_lib_test1:version/0'
p1045
g1041
I6
tp1046
a(S'erlydtl_lib_testversion:inventory/1'
p1047
S'/Users/artemeff/Work/lapka/monitoring/deps/erlydtl/test/erlydtl_lib_testversion.erl'
p1048
I8
tp1049
a(S'erlydtl_lib_testversion:version/0'
p1050
g1048
I6
tp1051
a(S'erlydtl_parser:format_error/1'
p1052
S'/Users/artemeff/Work/lapka/monitoring/deps/erlydtl/src/erlydtl_parser.erl'
p1053
I53
tp1054
a(S'erlydtl_parser:parse/1'
p1055
g1053
I39
tp1056
a(S'erlydtl_parser:parse_and_scan/1'
p1057
g1053
I44
tp1058
a(S'erlydtl_parser:resume/1'
p1059
g1053
I49
tp1060
a(S'erlydtl_scanner:format_error/1'
p1061
S'/Users/artemeff/Work/lapka/monitoring/deps/erlydtl/src/erlydtl_scanner.erl'
p1062
I146
tp1063
a(S'erlydtl_scanner:resume/1'
p1064
g1062
I0
tp1065
a(S'erlydtl_scanner:scan/1'
p1066
g1062
I155
tp1067
a(S'erlydtl_scanner:scan/4'
p1068
g1062
I197
tp1069
a(S'erlydtl_slice:slice/2'
p1070
S'/Users/artemeff/Work/lapka/monitoring/deps/erlydtl/src/filter_lib/erlydtl_slice.erl'
p1071
I14
tp1072
a(S'erlydtl_slice:slice_input_cases/7'
p1073
g1071
I62
tp1074
a(S'erlydtl_test_defs:tests/0'
p1075
S'/Users/artemeff/Work/lapka/monitoring/deps/erlydtl/test/erlydtl_test_defs.erl'
p1076
I12
tp1077
a(S'erlydtl_test_extension:compile_ast/2'
p1078
S'/Users/artemeff/Work/lapka/monitoring/deps/erlydtl/test/erlydtl_test_extension.erl'
p1079
I25
tp1080
a(S'erlydtl_test_extension:parse/1'
p1081
g1079
I21
tp1082
a(S'erlydtl_test_extension:scan/1'
p1083
g1079
I14
tp1084
a(S'erlydtl_unparser:unparse/1'
p1085
S'/Users/artemeff/Work/lapka/monitoring/deps/erlydtl/src/erlydtl_unparser.erl'
p1086
I4
tp1087
a(S'error_hook_app:start/2'
p1088
S'/Users/artemeff/Work/lapka/monitoring/deps/cowboy/examples/error_hook/src/error_hook_app.erl'
p1089
I13
tp1090
a(S'error_hook_app:stop/1'
p1091
g1089
I23
tp1092
a(S'error_hook_sup:init/1'
p1093
S'/Users/artemeff/Work/lapka/monitoring/deps/cowboy/examples/error_hook/src/error_hook_sup.erl'
p1094
I21
tp1095
a(S'error_hook_sup:start_link/0'
p1096
g1094
I16
tp1097
a(S'error_logger_lager_h:code_change/3'
p1098
S'/Users/artemeff/Work/lapka/monitoring/deps/lager/src/error_logger_lager_h.erl'
p1099
I99
tp1100
a(S'error_logger_lager_h:format_reason/1'
p1101
g1099
I285
tp1102
a(S'error_logger_lager_h:handle_call/2'
p1103
g1099
I80
tp1104
a(S'error_logger_lager_h:handle_event/2'
p1105
g1099
I85
tp1106
a(S'error_logger_lager_h:handle_info/2'
p1107
g1099
I93
tp1108
a(S'error_logger_lager_h:init/1'
p1109
g1099
I77
tp1110
a(S'error_logger_lager_h:set_high_water/1'
p1111
g1099
I73
tp1112
a(S'error_logger_lager_h:terminate/2'
p1113
g1099
I96
tp1114
a(S'eunit_SUITE:all/0'
p1115
S'/Users/artemeff/Work/lapka/monitoring/deps/cowlib/test/eunit_SUITE.erl'
p1116
I27
tp1117
a(S'eunit_SUITE:eunit/1'
p1118
g1116
I30
tp1119
a(S'eunit_progress:handle_begin/3'
p1120
S'/Users/artemeff/Work/lapka/monitoring/deps/eunit_formatters/src/eunit_progress.erl'
p1121
I53
tp1122
a(S'eunit_progress:handle_cancel/3'
p1123
g1121
I70
tp1124
a(S'eunit_progress:handle_end/3'
p1125
g1121
I62
tp1126
a(S'eunit_progress:init/1'
p1127
g1121
I49
tp1128
a(S'eunit_progress:start/0'
p1129
g1121
I40
tp1130
a(S'eunit_progress:start/1'
p1131
g1121
I43
tp1132
a(S'eunit_progress:terminate/2'
p1133
g1121
I75
tp1134
a(S'eventsource_app:start/2'
p1135
S'/Users/artemeff/Work/lapka/monitoring/deps/cowboy/examples/eventsource/src/eventsource_app.erl'
p1136
I13
tp1137
a(S'eventsource_app:stop/1'
p1138
g1136
I25
tp1139
a(S'eventsource_handler:info/3'
p1140
S'/Users/artemeff/Work/lapka/monitoring/deps/cowboy/examples/eventsource/src/eventsource_handler.erl'
p1141
I16
tp1142
a(S'eventsource_handler:init/3'
p1143
g1141
I10
tp1144
a(S'eventsource_handler:terminate/3'
p1145
g1141
I21
tp1146
a(S'eventsource_sup:init/1'
p1147
S'/Users/artemeff/Work/lapka/monitoring/deps/cowboy/examples/eventsource/src/eventsource_sup.erl'
p1148
I21
tp1149
a(S'eventsource_sup:start_link/0'
p1150
g1148
I16
tp1151
a(S'gen:call/3'
p1152
S'/Users/artemeff/Work/lapka/monitoring/deps/gproc/patches/stdlib/gen.erl'
p1153
I132
tp1154
a(S'gen:call/4'
p1155
g1153
I188
tp1156
a(S'gen:debug_options/1'
p1157
g1153
I362
tp1158
a(S'gen:init_it/6'
p1159
g1153
I108
tp1160
a(S'gen:init_it/7'
p1161
g1153
I111
tp1162
a(S'gen:reg_behaviour/1'
p1163
g1153
I90
tp1164
a(S'gen:reply/2'
p1165
g1153
I315
tp1166
a(S'gen:start/5'
p1167
g1153
I57
tp1168
a(S'gen:start/6'
p1169
g1153
I49
tp1170
a(S'gen_event:add_handler/3'
p1171
S'/Users/artemeff/Work/lapka/monitoring/deps/gproc/patches/stdlib/gen_event.erl'
p1172
I130
tp1173
a(S'gen_event:add_sup_handler/3'
p1174
g1172
I131
tp1175
a(S'gen_event:behaviour_info/1'
p1176
g1172
I56
tp1177
a(S'gen_event:call/3'
p1178
g1172
I135
tp1179
a(S'gen_event:call/4'
p1180
g1172
I136
tp1181
a(S'gen_event:delete_handler/3'
p1182
g1172
I137
tp1183
a(S'gen_event:format_status/2'
p1184
g1172
I647
tp1185
a(S'gen_event:init_it/6'
p1186
g1172
I121
tp1187
a(S'gen_event:notify/2'
p1188
g1172
I133
tp1189
a(S'gen_event:print_event/3'
p1190
g1172
I313
tp1191
a(S'gen_event:start/0'
p1192
g1172
I109
tp1193
a(S'gen_event:start/1'
p1194
g1172
I112
tp1195
a(S'gen_event:start_link/0'
p1196
g1172
I115
tp1197
a(S'gen_event:start_link/1'
p1198
g1172
I118
tp1199
a(S'gen_event:stop/1'
p1200
g1172
I142
tp1201
a(S'gen_event:swap_handler/3'
p1202
g1172
I0
tp1203
a(S'gen_event:swap_sup_handler/3'
p1204
g1172
I0
tp1205
a(S'gen_event:sync_notify/2'
p1206
g1172
I134
tp1207
a(S'gen_event:system_code_change/4'
p1208
g1172
I298
tp1209
a(S'gen_event:system_continue/3'
p1210
g1172
I288
tp1211
a(S'gen_event:system_terminate/4'
p1212
g1172
I291
tp1213
a(S'gen_event:which_handlers/1'
p1214
g1172
I141
tp1215
a(S'gen_fsm:behaviour_info/1'
p1216
S'/Users/artemeff/Work/lapka/monitoring/deps/gproc/patches/stdlib/gen_fsm.erl'
p1217
I130
tp1218
a(S'gen_fsm:cancel_timer/1'
p1219
g1217
I229
tp1220
a(S'gen_fsm:enter_loop/4'
p1221
g1217
I247
tp1222
a(S'gen_fsm:enter_loop/5'
p1223
g1217
I250
tp1224
a(S'gen_fsm:enter_loop/6'
p1225
g1217
I255
tp1226
a(S'gen_fsm:format_status/2'
p1227
g1217
I576
tp1228
a(S'gen_fsm:init_it/6'
p1229
g1217
I312
tp1230
a(S'gen_fsm:print_event/3'
p1231
g1217
I407
tp1232
a(S'gen_fsm:reply/2'
p1233
g1217
I494
tp1234
a(S'gen_fsm:send_all_state_event/2'
p1235
g1217
I188
tp1236
a(S'gen_fsm:send_event/2'
p1237
g1217
I165
tp1238
a(S'gen_fsm:send_event_after/2'
p1239
g1217
I224
tp1240
a(S'gen_fsm:start/3'
p1241
g1217
I152
tp1242
a(S'gen_fsm:start/4'
p1243
g1217
I155
tp1244
a(S'gen_fsm:start_link/3'
p1245
g1217
I158
tp1246
a(S'gen_fsm:start_link/4'
p1247
g1217
I161
tp1248
a(S'gen_fsm:start_timer/2'
p1249
g1217
I220
tp1250
a(S'gen_fsm:sync_send_all_state_event/2'
p1251
g1217
I195
tp1252
a(S'gen_fsm:sync_send_all_state_event/3'
p1253
g1217
I203
tp1254
a(S'gen_fsm:sync_send_event/2'
p1255
g1217
I172
tp1256
a(S'gen_fsm:sync_send_event/3'
p1257
g1217
I180
tp1258
a(S'gen_fsm:system_code_change/4'
p1259
g1217
I0
tp1260
a(S'gen_fsm:system_continue/3'
p1261
g1217
I367
tp1262
a(S'gen_fsm:system_terminate/4'
p1263
g1217
I0
tp1264
a(S'gen_leader:alive/1'
p1265
S'/Users/artemeff/Work/lapka/monitoring/deps/gproc/patches/gen_leader/gen_leader.erl'
p1266
I169
tp1267
a(S'gen_leader:behaviour_info/1'
p1268
g1266
I102
tp1269
a(S'gen_leader:call/2'
p1270
g1266
I200
tp1271
a(S'gen_leader:call/3'
p1272
g1266
I218
tp1273
a(S'gen_leader:candidates/1'
p1274
g1266
I183
tp1275
a(S'gen_leader:cast/2'
p1276
g1266
I273
tp1277
a(S'gen_leader:down/1'
p1278
g1266
I176
tp1279
a(S'gen_leader:format_status/2'
p1280
g1266
I909
tp1281
a(S'gen_leader:init_it/6'
p1282
g1266
I305
tp1283
a(S'gen_leader:leader_call/2'
p1284
g1266
I239
tp1285
a(S'gen_leader:leader_call/3'
p1286
g1266
I260
tp1287
a(S'gen_leader:leader_cast/2'
p1288
g1266
I280
tp1289
a(S'gen_leader:print_event/3'
p1290
g1266
I670
tp1291
a(S'gen_leader:reply/2'
p1292
g1266
I293
tp1293
a(S'gen_leader:start/4'
p1294
g1266
I119
tp1295
a(S'gen_leader:start/6'
p1296
g1266
I0
tp1297
a(S'gen_leader:start_link/4'
p1298
g1266
I159
tp1299
a(S'gen_leader:start_link/6'
p1300
g1266
I0
tp1301
a(S'gen_leader:system_code_change/4'
p1302
g1266
I653
tp1303
a(S'gen_leader:system_continue/3'
p1304
g1266
I643
tp1305
a(S'gen_leader:system_terminate/4'
p1306
g1266
I649
tp1307
a(S'gen_leader:workers/1'
p1308
g1266
I190
tp1309
a(S'gen_server:abcast/2'
p1310
S'/Users/artemeff/Work/lapka/monitoring/deps/gproc/patches/stdlib/gen_server.erl'
p1311
I199
tp1312
a(S'gen_server:abcast/3'
p1313
g1311
I202
tp1314
a(S'gen_server:behaviour_info/1'
p1315
g1311
I113
tp1316
a(S'gen_server:call/2'
p1317
g1311
I155
tp1318
a(S'gen_server:call/3'
p1319
g1311
I163
tp1320
a(S'gen_server:cast/2'
p1321
g1311
I174
tp1322
a(S'gen_server:enter_loop/3'
p1323
g1311
I246
tp1324
a(S'gen_server:enter_loop/4'
p1325
g1311
I249
tp1326
a(S'gen_server:enter_loop/5'
p1327
g1311
I255
tp1328
a(S'gen_server:format_status/2'
p1329
g1311
I791
tp1330
a(S'gen_server:init_it/6'
p1331
g1311
I272
tp1332
a(S'gen_server:multi_call/2'
p1333
g1311
I0
tp1334
a(S'gen_server:multi_call/3'
p1335
g1311
I0
tp1336
a(S'gen_server:multi_call/4'
p1337
g1311
I228
tp1338
a(S'gen_server:print_event/3'
p1339
g1311
I633
tp1340
a(S'gen_server:reply/2'
p1341
g1311
I193
tp1342
a(S'gen_server:start/3'
p1343
g1311
I135
tp1344
a(S'gen_server:start/4'
p1345
g1311
I138
tp1346
a(S'gen_server:start_link/3'
p1347
g1311
I141
tp1348
a(S'gen_server:start_link/4'
p1349
g1311
I144
tp1350
a(S'gen_server:system_code_change/4'
p1351
g1311
I623
tp1352
a(S'gen_server:system_continue/3'
p1353
g1311
I617
tp1354
a(S'gen_server:system_terminate/4'
p1355
g1311
I620
tp1356
a(S'glc:all/1'
p1357
S'/Users/artemeff/Work/lapka/monitoring/deps/goldrush/src/glc.erl'
p1358
I128
tp1359
a(S'glc:any/1'
p1360
g1358
I139
tp1361
a(S'glc:compile/2'
p1362
g1358
I181
tp1363
a(S'glc:compile/3'
p1364
g1358
I185
tp1365
a(S'glc:delete/1'
p1366
g1358
I225
tp1367
a(S'glc:eq/2'
p1368
g1358
I106
tp1369
a(S'glc:filter/1'
p1370
g1358
I215
tp1371
a(S'glc:gt/2'
p1372
g1358
I110
tp1373
a(S'glc:handle/2'
p1374
g1358
I200
tp1375
a(S'glc:input/1'
p1376
g1358
I205
tp1377
a(S'glc:lt/2'
p1378
g1358
I102
tp1379
a(S'glc:nf/1'
p1380
g1358
I118
tp1381
a(S'glc:null/1'
p1382
g1358
I145
tp1383
a(S'glc:output/1'
p1384
g1358
I210
tp1385
a(S'glc:reset_counters/1'
p1386
g1358
I247
tp1387
a(S'glc:reset_counters/2'
p1388
g1358
I254
tp1389
a(S'glc:union/1'
p1390
g1358
I170
tp1391
a(S'glc:wc/1'
p1392
g1358
I114
tp1393
a(S'glc:with/2'
p1394
g1358
I155
tp1395
a(S'glc_code:compile/2'
p1396
S'/Users/artemeff/Work/lapka/monitoring/deps/goldrush/src/glc_code.erl'
p1397
I48
tp1398
a(S'glc_lib:matches/2'
p1399
S'/Users/artemeff/Work/lapka/monitoring/deps/goldrush/src/glc_lib.erl'
p1400
I52
tp1401
a(S'glc_lib:onoutput/1'
p1402
g1400
I93
tp1403
a(S'glc_lib:onoutput/2'
p1404
g1400
I108
tp1405
a(S'glc_lib:reduce/1'
p1406
g1400
I38
tp1407
a(S'glc_ops:all/1'
p1408
S'/Users/artemeff/Work/lapka/monitoring/deps/goldrush/src/glc_ops.erl'
p1409
I77
tp1410
a(S'glc_ops:any/1'
p1411
g1409
I89
tp1412
a(S'glc_ops:eq/2'
p1413
g1409
I44
tp1414
a(S'glc_ops:gt/2'
p1415
g1409
I51
tp1416
a(S'glc_ops:lt/2'
p1417
g1409
I37
tp1418
a(S'glc_ops:nf/1'
p1419
g1409
I65
tp1420
a(S'glc_ops:null/1'
p1421
g1409
I97
tp1422
a(S'glc_ops:union/1'
p1423
g1409
I124
tp1424
a(S'glc_ops:wc/1'
p1425
g1409
I58
tp1426
a(S'glc_ops:with/2'
p1427
g1409
I108
tp1428
a(S'gproc:add_global_aggr_counter/1'
p1429
S'/Users/artemeff/Work/lapka/monitoring/deps/gproc/src/gproc.erl'
p1430
I264
tp1431
a(S'gproc:add_global_counter/2'
p1432
g1430
I247
tp1433
a(S'gproc:add_global_name/1'
p1434
g1430
I204
tp1435
a(S'gproc:add_global_property/2'
p1436
g1430
I220
tp1437
a(S'gproc:add_local_aggr_counter/1'
p1438
g1430
I256
tp1439
a(S'gproc:add_local_counter/2'
p1440
g1430
I228
tp1441
a(S'gproc:add_local_name/1'
p1442
g1430
I196
tp1443
a(S'gproc:add_local_property/2'
p1444
g1430
I212
tp1445
a(S'gproc:add_shared_local_counter/2'
p1446
g1430
I238
tp1447
a(S'gproc:audit_process/1'
p1448
g1430
I2301
tp1449
a(S'gproc:await/1'
p1450
g1430
I629
tp1451
a(S'gproc:await/2'
p1452
g1430
I644
tp1453
a(S'gproc:await/3'
p1454
g1430
I657
tp1455
a(S'gproc:bcast/2'
p1456
g1430
I1802
tp1457
a(S'gproc:bcast/3'
p1458
g1430
I1817
tp1459
a(S'gproc:cancel_wait/2'
p1460
g1430
I837
tp1461
a(S'gproc:cancel_wait/3'
p1462
g1430
I849
tp1463
a(S'gproc:cancel_wait_or_monitor/1'
p1464
g1430
I868
tp1465
a(S'gproc:code_change/3'
p1466
g1430
I2221
tp1467
a(S'gproc:default/1'
p1468
g1430
I624
tp1469
a(S'gproc:demonitor/2'
p1470
g1430
I928
tp1471
a(S'gproc:first/1'
p1472
g1430
I1833
tp1473
a(S'gproc:get_attribute/2'
p1474
g1430
I1415
tp1475
a(S'gproc:get_attribute/3'
p1476
g1430
I1431
tp1477
a(S'gproc:get_attribute_shared/2'
p1478
g1430
I1440
tp1479
a(S'gproc:get_attributes/1'
p1480
g1430
I1464
tp1481
a(S'gproc:get_attributes/2'
p1482
g1430
I1474
tp1483
a(S'gproc:get_env/3'
p1484
g1430
I342
tp1485
a(S'gproc:get_env/4'
p1486
g1430
I0
tp1487
a(S'gproc:get_set_env/3'
p1488
g1430
I399
tp1489
a(S'gproc:get_set_env/4'
p1490
g1430
I0
tp1491
a(S'gproc:get_value/1'
p1492
g1430
I1364
tp1493
a(S'gproc:get_value/2'
p1494
g1430
I1382
tp1495
a(S'gproc:get_value_shared/1'
p1496
g1430
I1372
tp1497
a(S'gproc:give_away/2'
p1498
g1430
I1734
tp1499
a(S'gproc:goodbye/0'
p1500
g1430
I1753
tp1501
a(S'gproc:handle_call/3'
p1502
g1430
I2054
tp1503
a(S'gproc:handle_cast/2'
p1504
g1430
I2009
tp1505
a(S'gproc:handle_info/2'
p1506
g1430
I2213
tp1507
a(S'gproc:i/0'
p1508
g1430
I2003
tp1509
a(S'gproc:info/1'
p1510
g1430
I1934
tp1511
a(S'gproc:info/2'
p1512
g1430
I1946
tp1513
a(S'gproc:init/1'
p1514
g1430
I2496
tp1515
a(S'gproc:last/1'
p1516
g1430
I1851
tp1517
a(S'gproc:lookup_global_aggr_counter/1'
p1518
g1430
I299
tp1519
a(S'gproc:lookup_global_counters/1'
p1520
g1430
I338
tp1521
a(S'gproc:lookup_global_name/1'
p1522
g1430
I281
tp1523
a(S'gproc:lookup_global_properties/1'
p1524
g1430
I318
tp1525
a(S'gproc:lookup_local_aggr_counter/1'
p1526
g1430
I290
tp1527
a(S'gproc:lookup_local_counters/1'
p1528
g1430
I328
tp1529
a(S'gproc:lookup_local_name/1'
p1530
g1430
I273
tp1531
a(S'gproc:lookup_local_properties/1'
p1532
g1430
I309
tp1533
a(S'gproc:lookup_pid/1'
p1534
g1430
I1493
tp1535
a(S'gproc:lookup_pids/1'
p1536
g1430
I1553
tp1537
a(S'gproc:lookup_value/1'
p1538
g1430
I1502
tp1539
a(S'gproc:lookup_values/1'
p1540
g1430
I1581
tp1541
a(S'gproc:monitor/1'
p1542
g1430
I742
tp1543
a(S'gproc:monitor/2'
p1544
g1430
I928
tp1545
a(S'gproc:mreg/3'
p1546
g1430
I1050
tp1547
a(S'gproc:munreg/3'
p1548
g1430
I1074
tp1549
a(S'gproc:nb_wait/1'
p1550
g1430
I803
tp1551
a(S'gproc:nb_wait/2'
p1552
g1430
I813
tp1553
a(S'gproc:next/2'
p1554
g1430
I1868
tp1555
a(S'gproc:prev/2'
p1556
g1430
I1893
tp1557
a(S'gproc:reg/1'
p1558
g1430
I606
tp1559
a(S'gproc:reg/2'
p1560
g1430
I944
tp1561
a(S'gproc:reg_or_locate/1'
p1562
g1430
I617
tp1563
a(S'gproc:reg_or_locate/2'
p1564
g1430
I970
tp1565
a(S'gproc:reg_or_locate/3'
p1566
g1430
I985
tp1567
a(S'gproc:reg_shared/1'
p1568
g1430
I1003
tp1569
a(S'gproc:reg_shared/2'
p1570
g1430
I1025
tp1571
a(S'gproc:register_name/2'
p1572
g1430
I1196
tp1573
a(S'gproc:reset_counter/1'
p1574
g1430
I1676
tp1575
a(S'gproc:select/1'
p1576
g1430
I1230
tp1577
a(S'gproc:select/2'
p1578
g1430
I1251
tp1579
a(S'gproc:select/3'
p1580
g1430
I1260
tp1581
a(S'gproc:select_count/1'
p1582
g1430
I1268
tp1583
a(S'gproc:select_count/2'
p1584
g1430
I1278
tp1585
a(S'gproc:send/2'
p1586
g1430
I1769
tp1587
a(S'gproc:set_attributes/2'
p1588
g1430
I1138
tp1589
a(S'gproc:set_attributes_shared/2'
p1590
g1430
I1180
tp1591
a(S'gproc:set_env/5'
p1592
g1430
I0
tp1593
a(S'gproc:set_value/2'
p1594
g1430
I1312
tp1595
a(S'gproc:set_value_shared/2'
p1596
g1430
I0
tp1597
a(S'gproc:start_link/0'
p1598
g1430
I185
tp1599
a(S'gproc:table/0'
p1600
g1430
I2683
tp1601
a(S'gproc:table/1'
p1602
g1430
I2692
tp1603
a(S'gproc:table/2'
p1604
g1430
I2710
tp1605
a(S'gproc:terminate/2'
p1606
g1430
I2234
tp1607
a(S'gproc:unreg/1'
p1608
g1430
I1108
tp1609
a(S'gproc:unreg_shared/1'
p1610
g1430
I1154
tp1611
a(S'gproc:unregister_name/1'
p1612
g1430
I1204
tp1613
a(S'gproc:update_counter/2'
p1614
g1430
I1614
tp1615
a(S'gproc:update_counter/3'
p1616
g1430
I0
tp1617
a(S'gproc:update_counters/2'
p1618
g1430
I1643
tp1619
a(S'gproc:update_shared_counter/2'
p1620
g1430
I1707
tp1621
a(S'gproc:where/1'
p1622
g1430
I1518
tp1623
a(S'gproc:whereis_name/1'
p1624
g1430
I1538
tp1625
a(S'gproc:wide_await/3'
p1626
g1430
I738
tp1627
a(S'gproc_app:start/0'
p1628
S'/Users/artemeff/Work/lapka/monitoring/deps/gproc/src/gproc_app.erl'
p1629
I23
tp1630
a(S'gproc_app:start/2'
p1631
g1629
I26
tp1632
a(S'gproc_app:stop/1'
p1633
g1629
I38
tp1634
a(S'gproc_bcast:code_change/3'
p1635
S'/Users/artemeff/Work/lapka/monitoring/deps/gproc/src/gproc_bcast.erl'
p1636
I59
tp1637
a(S'gproc_bcast:handle_call/3'
p1638
g1636
I44
tp1639
a(S'gproc_bcast:handle_cast/2'
p1640
g1636
I47
tp1641
a(S'gproc_bcast:handle_info/2'
p1642
g1636
I53
tp1643
a(S'gproc_bcast:init/1'
p1644
g1636
I41
tp1645
a(S'gproc_bcast:start_link/0'
p1646
g1636
I38
tp1647
a(S'gproc_bcast:terminate/2'
p1648
g1636
I56
tp1649
a(S'gproc_dist:code_change/4'
p1650
S'/Users/artemeff/Work/lapka/monitoring/deps/gproc/src/gproc_dist.erl'
p1651
I752
tp1652
a(S'gproc_dist:demonitor/2'
p1653
g1651
I138
tp1654
a(S'gproc_dist:elected/2'
p1655
g1651
I265
tp1656
a(S'gproc_dist:elected/3'
p1657
g1651
I268
tp1658
a(S'gproc_dist:from_leader/3'
p1659
g1651
I758
tp1660
a(S'gproc_dist:get_leader/0'
p1661
g1651
I239
tp1662
a(S'gproc_dist:give_away/2'
p1663
g1651
I193
tp1664
a(S'gproc_dist:handle_DOWN/3'
p1665
g1651
I300
tp1666
a(S'gproc_dist:handle_call/4'
p1667
g1651
I249
tp1668
a(S'gproc_dist:handle_cast/3'
p1669
g1651
I246
tp1670
a(S'gproc_dist:handle_info/2'
p1671
g1651
I254
tp1672
a(S'gproc_dist:handle_info/3'
p1673
g1651
I261
tp1674
a(S'gproc_dist:handle_leader_call/4'
p1675
g1651
I326
tp1676
a(S'gproc_dist:handle_leader_cast/3'
p1677
g1651
I600
tp1678
a(S'gproc_dist:init/1'
p1679
g1651
I826
tp1680
a(S'gproc_dist:leader_call/1'
p1681
g1651
I817
tp1682
a(S'gproc_dist:leader_cast/1'
p1683
g1651
I823
tp1684
a(S'gproc_dist:monitor/2'
p1685
g1651
I135
tp1686
a(S'gproc_dist:mreg/2'
p1687
g1651
I155
tp1688
a(S'gproc_dist:munreg/2'
p1689
g1651
I160
tp1690
a(S'gproc_dist:reg/1'
p1691
g1651
I93
tp1692
a(S'gproc_dist:reg/2'
p1693
g1651
I120
tp1694
a(S'gproc_dist:reg_or_locate/3'
p1695
g1651
I98
tp1696
a(S'gproc_dist:reg_shared/2'
p1697
g1651
I126
tp1698
a(S'gproc_dist:reset_counter/1'
p1699
g1651
I214
tp1700
a(S'gproc_dist:set_attributes/2'
p1701
g1651
I144
tp1702
a(S'gproc_dist:set_attributes_shared/2'
p1703
g1651
I149
tp1704
a(S'gproc_dist:set_value/2'
p1705
g1651
I182
tp1706
a(S'gproc_dist:set_value_shared/2'
p1707
g1651
I189
tp1708
a(S'gproc_dist:start_link/0'
p1709
g1651
I76
tp1710
a(S'gproc_dist:start_link/1'
p1711
g1651
I79
tp1712
a(S'gproc_dist:surrendered/3'
p1713
g1651
I293
tp1714
a(S'gproc_dist:sync/0'
p1715
g1651
I233
tp1716
a(S'gproc_dist:terminate/2'
p1717
g1651
I755
tp1718
a(S'gproc_dist:unreg/1'
p1719
g1651
I165
tp1720
a(S'gproc_dist:unreg_shared/1'
p1721
g1651
I172
tp1722
a(S'gproc_dist:update_counter/3'
p1723
g1651
I200
tp1724
a(S'gproc_dist:update_counters/1'
p1725
g1651
I203
tp1726
a(S'gproc_dist:update_shared_counter/2'
p1727
g1651
I208
tp1728
a(S'gproc_dist_tests:t_spawn/1'
p1729
S'/Users/artemeff/Work/lapka/monitoring/deps/gproc/test/gproc_dist_tests.erl'
p1730
I452
tp1731
a(S'gproc_dist_tests:t_spawn_reg/2'
p1732
g1730
I455
tp1733
a(S'gproc_info:i/0'
p1734
S'/Users/artemeff/Work/lapka/monitoring/deps/gproc/src/gproc_info.erl'
p1735
I28
tp1736
a(S'gproc_init:hard_reset/0'
p1737
S'/Users/artemeff/Work/lapka/monitoring/deps/gproc/src/gproc_init.erl'
p1738
I36
tp1739
a(S'gproc_init:soft_reset/0'
p1740
g1738
I26
tp1741
a(S'gproc_lib:add_monitor/4'
p1742
S'/Users/artemeff/Work/lapka/monitoring/deps/gproc/src/gproc_lib.erl'
p1743
I387
tp1744
a(S'gproc_lib:await/3'
p1745
g1743
I0
tp1746
a(S'gproc_lib:dbg/1'
p1747
g1743
I52
tp1748
a(S'gproc_lib:do_set_counter_value/3'
p1749
g1743
I454
tp1750
a(S'gproc_lib:do_set_value/3'
p1751
g1743
I440
tp1752
a(S'gproc_lib:ensure_monitor/2'
p1753
g1743
I294
tp1754
a(S'gproc_lib:followers/1'
p1755
g1743
I346
tp1756
a(S'gproc_lib:insert_attr/4'
p1757
g1743
I0
tp1758
a(S'gproc_lib:insert_many/4'
p1759
g1743
I131
tp1760
a(S'gproc_lib:insert_reg/4'
p1761
g1743
I66
tp1762
a(S'gproc_lib:insert_reg/5'
p1763
g1743
I106
tp1764
a(S'gproc_lib:monitors/1'
p1765
g1743
I335
tp1766
a(S'gproc_lib:notify/2'
p1767
g1743
I332
tp1768
a(S'gproc_lib:notify/3'
p1769
g1743
I365
tp1770
a(S'gproc_lib:remove_many/4'
p1771
g1743
I406
tp1772
a(S'gproc_lib:remove_monitor/3'
p1773
g1743
I394
tp1774
a(S'gproc_lib:remove_monitor_pid/2'
p1775
g1743
I356
tp1776
a(S'gproc_lib:remove_monitors/3'
p1777
g1743
I257
tp1778
a(S'gproc_lib:remove_reg/3'
p1779
g1743
I305
tp1780
a(S'gproc_lib:remove_reg/4'
p1781
g1743
I310
tp1782
a(S'gproc_lib:remove_reverse_mapping/3'
p1783
g1743
I315
tp1784
a(S'gproc_lib:remove_reverse_mapping/4'
p1785
g1743
I0
tp1786
a(S'gproc_lib:remove_wait/4'
p1787
g1743
I225
tp1788
a(S'gproc_lib:standbys/1'
p1789
g1743
I343
tp1790
a(S'gproc_lib:update_aggr_counter/3'
p1791
g1743
I500
tp1792
a(S'gproc_lib:update_counter/3'
p1793
g1743
I483
tp1794
a(S'gproc_lib:valid_opts/2'
p1795
g1743
I509
tp1796
a(S'gproc_monitor:code_change/3'
p1797
S'/Users/artemeff/Work/lapka/monitoring/deps/gproc/src/gproc_monitor.erl'
p1798
I228
tp1799
a(S'gproc_monitor:handle_call/3'
p1800
g1798
I143
tp1801
a(S'gproc_monitor:handle_cast/2'
p1802
g1798
I157
tp1803
a(S'gproc_monitor:handle_info/2'
p1804
g1798
I178
tp1805
a(S'gproc_monitor:init/1'
p1806
g1798
I122
tp1807
a(S'gproc_monitor:start_link/0'
p1808
g1798
I94
tp1809
a(S'gproc_monitor:subscribe/1'
p1810
g1798
I0
tp1811
a(S'gproc_monitor:terminate/2'
p1812
g1798
I217
tp1813
a(S'gproc_monitor:unsubscribe/1'
p1814
g1798
I0
tp1815
a(S'gproc_pool:active_workers/1'
p1816
S'/Users/artemeff/Work/lapka/monitoring/deps/gproc/src/gproc_pool.erl'
p1817
I251
tp1818
a(S'gproc_pool:add_worker/2'
p1819
g1817
I166
tp1820
a(S'gproc_pool:add_worker/3'
p1821
g1817
I179
tp1822
a(S'gproc_pool:claim/2'
p1823
g1817
I380
tp1824
a(S'gproc_pool:code_change/3'
p1825
g1817
I541
tp1826
a(S'gproc_pool:connect_worker/2'
p1827
g1817
I197
tp1828
a(S'gproc_pool:defined_workers/1'
p1829
g1817
I269
tp1830
a(S'gproc_pool:delete/1'
p1831
g1817
I129
tp1832
a(S'gproc_pool:disconnect_worker/2'
p1833
g1817
I212
tp1834
a(S'gproc_pool:force_delete/1'
p1835
g1817
I141
tp1836
a(S'gproc_pool:handle_call/3'
p1837
g1817
I492
tp1838
a(S'gproc_pool:handle_cast/2'
p1839
g1817
I529
tp1840
a(S'gproc_pool:handle_info/2'
p1841
g1817
I533
tp1842
a(S'gproc_pool:init/1'
p1843
g1817
I474
tp1844
a(S'gproc_pool:log/1'
p1845
g1817
I439
tp1846
a(S'gproc_pool:new/1'
p1847
g1817
I97
tp1848
a(S'gproc_pool:new/3'
p1849
g1817
I0
tp1850
a(S'gproc_pool:pick/1'
p1851
g1817
I293
tp1852
a(S'gproc_pool:pick/2'
p1853
g1817
I314
tp1854
a(S'gproc_pool:ptest/4'
p1855
g1817
I851
tp1856
a(S'gproc_pool:randomize/1'
p1857
g1817
I449
tp1858
a(S'gproc_pool:remove_test_pool/1'
p1859
g1817
I896
tp1860
a(S'gproc_pool:remove_worker/2'
p1861
g1817
I222
tp1862
a(S'gproc_pool:setup_test_pool/3'
p1863
g1817
I886
tp1864
a(S'gproc_pool:start_link/0'
p1865
g1817
I470
tp1866
a(S'gproc_pool:terminate/2'
p1867
g1817
I537
tp1868
a(S'gproc_pool:test/1'
p1869
g1817
I0
tp1870
a(S'gproc_pool:test/3'
p1871
g1817
I0
tp1872
a(S'gproc_pool:test_run/2'
p1873
g1817
I910
tp1874
a(S'gproc_pool:test_run0/2'
p1875
g1817
I947
tp1876
a(S'gproc_pool:test_run1/2'
p1877
g1817
I923
tp1878
a(S'gproc_pool:test_run2/2'
p1879
g1817
I935
tp1880
a(S'gproc_pool:whereis_worker/2'
p1881
g1817
I233
tp1882
a(S'gproc_pool:worker_id/2'
p1883
g1817
I244
tp1884
a(S'gproc_pool:worker_pool/1'
p1885
g1817
I283
tp1886
a(S'gproc_ps:change_cond/3'
p1887
S'/Users/artemeff/Work/lapka/monitoring/deps/gproc/src/gproc_ps.erl'
p1888
I0
tp1889
a(S'gproc_ps:create_single/2'
p1890
g1888
I0
tp1891
a(S'gproc_ps:delete_single/2'
p1892
g1888
I0
tp1893
a(S'gproc_ps:disable_single/2'
p1894
g1888
I0
tp1895
a(S'gproc_ps:enable_single/2'
p1896
g1888
I0
tp1897
a(S'gproc_ps:list_singles/2'
p1898
g1888
I282
tp1899
a(S'gproc_ps:list_subs/2'
p1900
g1888
I0
tp1901
a(S'gproc_ps:notify_single_if_true/4'
p1902
g1888
I293
tp1903
a(S'gproc_ps:publish/3'
p1904
g1888
I0
tp1905
a(S'gproc_ps:publish_cond/3'
p1906
g1888
I0
tp1907
a(S'gproc_ps:subscribe/2'
p1908
g1888
I135
tp1909
a(S'gproc_ps:subscribe_cond/3'
p1910
g1888
I0
tp1911
a(S'gproc_ps:tell_singles/3'
p1912
g1888
I0
tp1913
a(S'gproc_ps:unsubscribe/2'
p1914
g1888
I0
tp1915
a(S'gproc_pt:parse_transform/2'
p1916
S'/Users/artemeff/Work/lapka/monitoring/deps/gproc/src/gproc_pt.erl'
p1917
I42
tp1918
a(S'gproc_sup:init/1'
p1919
S'/Users/artemeff/Work/lapka/monitoring/deps/gproc/src/gproc_sup.erl'
p1920
I35
tp1921
a(S'gproc_sup:start_link/1'
p1922
g1920
I19
tp1923
a(S'gproc_test_lib:got_msg/1'
p1924
S'/Users/artemeff/Work/lapka/monitoring/deps/gproc/test/gproc_test_lib.erl'
p1925
I106
tp1926
a(S'gproc_test_lib:got_msg/2'
p1927
g1925
I116
tp1928
a(S'gproc_test_lib:t_call/2'
p1929
g1925
I72
tp1930
a(S'gproc_test_lib:t_loop/0'
p1931
g1925
I85
tp1932
a(S'gproc_test_lib:t_loop/1'
p1933
g1925
I88
tp1934
a(S'gproc_test_lib:t_spawn/1'
p1935
g1925
I13
tp1936
a(S'gproc_test_lib:t_spawn/2'
p1937
g1925
I16
tp1938
a(S'gproc_test_lib:t_spawn_mreg/2'
p1939
g1925
I44
tp1940
a(S'gproc_test_lib:t_spawn_reg/2'
p1941
g1925
I28
tp1942
a(S'gproc_test_lib:t_spawn_reg/3'
p1943
g1925
I31
tp1944
a(S'gproc_test_lib:t_spawn_reg_shared/3'
p1945
g1925
I56
tp1946
a(S'gr_app:start/2'
p1947
S'/Users/artemeff/Work/lapka/monitoring/deps/goldrush/src/gr_app.erl'
p1948
I23
tp1949
a(S'gr_app:stop/1'
p1950
g1948
I26
tp1951
a(S'gr_context:make/1'
p1952
S'/Users/artemeff/Work/lapka/monitoring/deps/goldrush/src/gr_context.erl'
p1953
I22
tp1954
a(S'gr_counter:code_change/3'
p1955
S'/Users/artemeff/Work/lapka/monitoring/deps/goldrush/src/gr_counter.erl'
p1956
I211
tp1957
a(S'gr_counter:handle_call/3'
p1958
g1956
I116
tp1959
a(S'gr_counter:handle_cast/2'
p1960
g1956
I158
tp1961
a(S'gr_counter:handle_info/2'
p1962
g1956
I180
tp1963
a(S'gr_counter:init/1'
p1964
g1956
I99
tp1965
a(S'gr_counter:list/1'
p1966
g1956
I37
tp1967
a(S'gr_counter:lookup_element/2'
p1968
g1956
I44
tp1969
a(S'gr_counter:reset_counters/2'
p1970
g1956
I67
tp1971
a(S'gr_counter:start_link/1'
p1972
g1956
I81
tp1973
a(S'gr_counter:terminate/2'
p1974
g1956
I200
tp1975
a(S'gr_counter:update_counter/3'
p1976
g1956
I51
tp1977
a(S'gr_counter_sup:init/1'
p1978
S'/Users/artemeff/Work/lapka/monitoring/deps/goldrush/src/gr_counter_sup.erl'
p1979
I41
tp1980
a(S'gr_counter_sup:start_link/0'
p1981
g1979
I33
tp1982
a(S'gr_manager:code_change/3'
p1983
S'/Users/artemeff/Work/lapka/monitoring/deps/goldrush/src/gr_manager.erl'
p1984
I175
tp1985
a(S'gr_manager:handle_call/3'
p1986
g1984
I97
tp1987
a(S'gr_manager:handle_cast/2'
p1988
g1984
I119
tp1989
a(S'gr_manager:handle_info/2'
p1990
g1984
I132
tp1991
a(S'gr_manager:init/1'
p1992
g1984
I78
tp1993
a(S'gr_manager:start_link/3'
p1994
g1984
I60
tp1995
a(S'gr_manager:terminate/2'
p1996
g1984
I164
tp1997
a(S'gr_manager:wait_for_pid/1'
p1998
g1984
I0
tp1999
a(S'gr_manager_sup:init/1'
p2000
S'/Users/artemeff/Work/lapka/monitoring/deps/goldrush/src/gr_manager_sup.erl'
p2001
I46
tp2002
a(S'gr_manager_sup:start_link/0'
p2003
g2001
I38
tp2004
a(S'gr_param:code_change/3'
p2005
S'/Users/artemeff/Work/lapka/monitoring/deps/goldrush/src/gr_param.erl'
p2006
I221
tp2007
a(S'gr_param:handle_call/3'
p2008
g2006
I163
tp2009
a(S'gr_param:handle_cast/2'
p2010
g2006
I177
tp2011
a(S'gr_param:handle_info/2'
p2012
g2006
I190
tp2013
a(S'gr_param:info/1'
p2014
g2006
I73
tp2015
a(S'gr_param:info_size/1'
p2016
g2006
I45
tp2017
a(S'gr_param:init/1'
p2018
g2006
I113
tp2019
a(S'gr_param:insert/2'
p2020
g2006
I52
tp2021
a(S'gr_param:list/1'
p2022
g2006
I38
tp2023
a(S'gr_param:lookup/2'
p2024
g2006
I59
tp2025
a(S'gr_param:lookup_element/2'
p2026
g2006
I66
tp2027
a(S'gr_param:start_link/1'
p2028
g2006
I95
tp2029
a(S'gr_param:terminate/2'
p2030
g2006
I210
tp2031
a(S'gr_param:transform/1'
p2032
g2006
I81
tp2033
a(S'gr_param_sup:init/1'
p2034
S'/Users/artemeff/Work/lapka/monitoring/deps/goldrush/src/gr_param_sup.erl'
p2035
I47
tp2036
a(S'gr_param_sup:start_link/0'
p2037
g2035
I39
tp2038
a(S'gr_sup:init/1'
p2039
S'/Users/artemeff/Work/lapka/monitoring/deps/goldrush/src/gr_sup.erl'
p2040
I38
tp2041
a(S'gr_sup:start_link/0'
p2042
g2040
I34
tp2043
a(S'gre:fetch/2'
p2044
S'/Users/artemeff/Work/lapka/monitoring/deps/goldrush/src/gre.erl'
p2045
I45
tp2046
a(S'gre:find/2'
p2047
g2045
I56
tp2048
a(S'gre:has/2'
p2049
g2045
I38
tp2050
a(S'gre:keys/1'
p2051
g2045
I65
tp2052
a(S'gre:make/2'
p2053
g2045
I32
tp2054
a(S'gre:pairs/1'
p2055
g2045
I77
tp2056
a(S'hello_world_app:start/2'
p2057
S'/Users/artemeff/Work/lapka/monitoring/deps/cowboy/examples/hello_world/src/hello_world_app.erl'
p2058
I13
tp2059
a(S'hello_world_app:stop/1'
p2060
g2058
I24
tp2061
a(S'hello_world_sup:init/1'
p2062
S'/Users/artemeff/Work/lapka/monitoring/deps/cowboy/examples/hello_world/src/hello_world_sup.erl'
p2063
I21
tp2064
a(S'hello_world_sup:start_link/0'
p2065
g2063
I16
tp2066
a(S'http_body_qs:handle/2'
p2067
S'/Users/artemeff/Work/lapka/monitoring/deps/cowboy/test/http_SUITE_data/http_body_qs.erl'
p2068
I10
tp2069
a(S'http_body_qs:init/3'
p2070
g2068
I7
tp2071
a(S'http_body_qs:terminate/3'
p2072
g2068
I39
tp2073
a(S'http_chunked:handle/2'
p2074
S'/Users/artemeff/Work/lapka/monitoring/deps/cowboy/test/http_SUITE_data/http_chunked.erl'
p2075
I10
tp2076
a(S'http_chunked:init/3'
p2077
g2075
I7
tp2078
a(S'http_chunked:terminate/3'
p2079
g2075
I18
tp2080
a(S'http_echo_body:handle/2'
p2081
S'/Users/artemeff/Work/lapka/monitoring/deps/cowboy/test/http_SUITE_data/http_echo_body.erl'
p2082
I10
tp2083
a(S'http_echo_body:init/3'
p2084
g2082
I7
tp2085
a(S'http_echo_body:terminate/3'
p2086
g2082
I28
tp2087
a(S'http_errors:handle/2'
p2088
S'/Users/artemeff/Work/lapka/monitoring/deps/cowboy/test/http_SUITE_data/http_errors.erl'
p2089
I26
tp2090
a(S'http_errors:init/3'
p2091
g2089
I7
tp2092
a(S'http_errors:terminate/3'
p2093
g2089
I37
tp2094
a(S'http_handler:handle/2'
p2095
S'/Users/artemeff/Work/lapka/monitoring/deps/cowboy/test/http_SUITE_data/http_handler.erl'
p2096
I14
tp2097
a(S'http_handler:init/3'
p2098
g2096
I9
tp2099
a(S'http_handler:terminate/3'
p2100
g2096
I18
tp2101
a(S'http_init_shutdown:handle/2'
p2102
S'/Users/artemeff/Work/lapka/monitoring/deps/cowboy/test/http_SUITE_data/http_init_shutdown.erl'
p2103
I12
tp2104
a(S'http_init_shutdown:init/3'
p2105
g2103
I7
tp2106
a(S'http_init_shutdown:terminate/3'
p2107
g2103
I16
tp2108
a(S'http_loop_stream_recv:info/3'
p2109
S'/Users/artemeff/Work/lapka/monitoring/deps/cowboy/test/http_SUITE_data/http_loop_stream_recv.erl'
p2110
I13
tp2111
a(S'http_loop_stream_recv:init/3'
p2112
g2110
I8
tp2113
a(S'http_loop_stream_recv:terminate/3'
p2114
g2110
I33
tp2115
a(S'http_multipart:handle/2'
p2116
S'/Users/artemeff/Work/lapka/monitoring/deps/cowboy/test/http_SUITE_data/http_multipart.erl'
p2117
I10
tp2118
a(S'http_multipart:init/3'
p2119
g2117
I7
tp2120
a(S'http_multipart:terminate/3'
p2121
g2117
I15
tp2122
a(S'http_multipart_stream:handle/2'
p2123
S'/Users/artemeff/Work/lapka/monitoring/deps/cowboy/test/http_SUITE_data/http_multipart_stream.erl'
p2124
I10
tp2125
a(S'http_multipart_stream:init/3'
p2126
g2124
I7
tp2127
a(S'http_multipart_stream:terminate/3'
p2128
g2124
I15
tp2129
a(S'http_req_attr:handle/2'
p2130
S'/Users/artemeff/Work/lapka/monitoring/deps/cowboy/test/http_SUITE_data/http_req_attr.erl'
p2131
I11
tp2132
a(S'http_req_attr:init/3'
p2133
g2131
I7
tp2134
a(S'http_req_attr:terminate/3'
p2135
g2131
I18
tp2136
a(S'http_set_resp:handle/2'
p2137
S'/Users/artemeff/Work/lapka/monitoring/deps/cowboy/test/http_SUITE_data/http_set_resp.erl'
p2138
I18
tp2139
a(S'http_set_resp:init/3'
p2140
g2138
I7
tp2141
a(S'http_set_resp:terminate/3'
p2142
g2138
I30
tp2143
a(S'http_stream_body:handle/2'
p2144
S'/Users/artemeff/Work/lapka/monitoring/deps/cowboy/test/http_SUITE_data/http_stream_body.erl'
p2145
I15
tp2146
a(S'http_stream_body:init/3'
p2147
g2145
I9
tp2148
a(S'http_stream_body:terminate/3'
p2149
g2145
I31
tp2150
a(S'http_streamed:handle/2'
p2151
S'/Users/artemeff/Work/lapka/monitoring/deps/cowboy/test/http_SUITE_data/http_streamed.erl'
p2152
I10
tp2153
a(S'http_streamed:init/3'
p2154
g2152
I7
tp2155
a(S'http_streamed:terminate/3'
p2156
g2152
I19
tp2157
a(S'i18n_manager:generate_pos/1'
p2158
S'/Users/artemeff/Work/lapka/monitoring/deps/erlydtl/src/i18n/i18n_manager.erl'
p2159
I20
tp2160
a(S'ibrowse:add_config/1'
p2161
S'/Users/artemeff/Work/lapka/monitoring/deps/ibrowse/src/ibrowse.erl'
p2162
I729
tp2163
a(S'ibrowse:all_trace_off/0'
p2164
g2162
I609
tp2165
a(S'ibrowse:code_change/3'
p2166
g2162
I939
tp2167
a(S'ibrowse:get_config_value/1'
p2168
g2162
I800
tp2169
a(S'ibrowse:get_config_value/2'
p2170
g2162
I810
tp2171
a(S'ibrowse:get_metrics/0'
p2172
g2162
I656
tp2173
a(S'ibrowse:get_metrics/2'
p2174
g2162
I680
tp2175
a(S'ibrowse:handle_call/3'
p2176
g2162
I835
tp2177
a(S'ibrowse:handle_cast/2'
p2178
g2162
I879
tp2179
a(S'ibrowse:handle_info/2'
p2180
g2162
I889
tp2181
a(S'ibrowse:init/1'
p2182
g2162
I744
tp2183
a(S'ibrowse:rescan_config/0'
p2184
g2162
I717
tp2185
a(S'ibrowse:rescan_config/1'
p2186
g2162
I723
tp2187
a(S'ibrowse:send_req/3'
p2188
g2162
I165
tp2189
a(S'ibrowse:send_req/4'
p2190
g2162
I175
tp2191
a(S'ibrowse:send_req/5'
p2192
g2162
I308
tp2193
a(S'ibrowse:send_req/6'
p2194
g2162
I315
tp2195
a(S'ibrowse:send_req_direct/4'
p2196
g2162
I526
tp2197
a(S'ibrowse:send_req_direct/5'
p2198
g2162
I531
tp2199
a(S'ibrowse:send_req_direct/6'
p2200
g2162
I536
tp2201
a(S'ibrowse:send_req_direct/7'
p2202
g2162
I541
tp2203
a(S'ibrowse:set_dest/3'
p2204
g2162
I415
tp2205
a(S'ibrowse:set_max_pipeline_size/3'
p2206
g2162
I0
tp2207
a(S'ibrowse:set_max_sessions/3'
p2208
g2162
I0
tp2209
a(S'ibrowse:show_dest_status/0'
p2210
g2162
I616
tp2211
a(S'ibrowse:show_dest_status/1'
p2212
g2162
I630
tp2213
a(S'ibrowse:show_dest_status/2'
p2214
g2162
I638
tp2215
a(S'ibrowse:spawn_link_worker_process/1'
p2216
g2162
I506
tp2217
a(S'ibrowse:spawn_link_worker_process/2'
p2218
g2162
I511
tp2219
a(S'ibrowse:spawn_worker_process/1'
p2220
g2162
I492
tp2221
a(S'ibrowse:spawn_worker_process/2'
p2222
g2162
I497
tp2223
a(S'ibrowse:start/0'
p2224
g2162
I137
tp2225
a(S'ibrowse:start_link/0'
p2226
g2162
I133
tp2227
a(S'ibrowse:stop/0'
p2228
g2162
I141
tp2229
a(S'ibrowse:stop_worker_process/1'
p2230
g2162
I521
tp2231
a(S'ibrowse:stream_close/1'
p2232
g2162
I575
tp2233
a(S'ibrowse:stream_next/1'
p2234
g2162
I560
tp2235
a(S'ibrowse:terminate/2'
p2236
g2162
I931
tp2237
a(S'ibrowse:trace_off/0'
p2238
g2162
I588
tp2239
a(S'ibrowse:trace_off/2'
p2240
g2162
I603
tp2241
a(S'ibrowse:trace_on/0'
p2242
g2162
I585
tp2243
a(S'ibrowse:trace_on/2'
p2244
g2162
I596
tp2245
a(S'ibrowse_app:start/2'
p2246
S'/Users/artemeff/Work/lapka/monitoring/deps/ibrowse/src/ibrowse_app.erl'
p2247
I46
tp2248
a(S'ibrowse_app:stop/1'
p2249
g2247
I58
tp2250
a(S'ibrowse_http_client:code_change/3'
p2251
S'/Users/artemeff/Work/lapka/monitoring/deps/ibrowse/src/ibrowse_http_client.erl'
p2252
I276
tp2253
a(S'ibrowse_http_client:handle_call/3'
p2254
g2252
I163
tp2255
a(S'ibrowse_http_client:handle_cast/2'
p2256
g2252
I179
tp2257
a(S'ibrowse_http_client:handle_info/2'
p2258
g2252
I192
tp2259
a(S'ibrowse_http_client:init/1'
p2260
g2252
I121
tp2261
a(S'ibrowse_http_client:send_req/7'
p2262
g2252
I104
tp2263
a(S'ibrowse_http_client:start/1'
p2264
g2252
I83
tp2265
a(S'ibrowse_http_client:start/2'
p2266
g2252
I86
tp2267
a(S'ibrowse_http_client:start_link/1'
p2268
g2252
I89
tp2269
a(S'ibrowse_http_client:start_link/2'
p2270
g2252
I92
tp2271
a(S'ibrowse_http_client:stop/1'
p2272
g2252
I95
tp2273
a(S'ibrowse_http_client:terminate/2'
p2274
g2252
I267
tp2275
a(S'ibrowse_lb:code_change/3'
p2276
S'/Users/artemeff/Work/lapka/monitoring/deps/ibrowse/src/ibrowse_lb.erl'
p2277
I227
tp2278
a(S'ibrowse_lb:handle_call/3'
p2279
g2277
I111
tp2280
a(S'ibrowse_lb:handle_cast/2'
p2281
g2277
I156
tp2282
a(S'ibrowse_lb:handle_info/2'
p2283
g2277
I199
tp2284
a(S'ibrowse_lb:init/1'
p2285
g2277
I67
tp2286
a(S'ibrowse_lb:spawn_connection/6'
p2287
g2277
I0
tp2288
a(S'ibrowse_lb:start_link/1'
p2289
g2277
I52
tp2290
a(S'ibrowse_lb:stop/1'
p2291
g2277
I93
tp2292
a(S'ibrowse_lb:terminate/2'
p2293
g2277
I219
tp2294
a(S'ibrowse_lib:decode_base64/1'
p2295
S'/Users/artemeff/Work/lapka/monitoring/deps/ibrowse/src/ibrowse_lib.erl'
p2296
I169
tp2297
a(S'ibrowse_lib:decode_rfc822_date/1'
p2298
g2296
I62
tp2299
a(S'ibrowse_lib:do_trace/2'
p2300
g2296
I386
tp2301
a(S'ibrowse_lib:do_trace/3'
p2302
g2296
I390
tp2303
a(S'ibrowse_lib:encode_base64/1'
p2304
g2296
I160
tp2305
a(S'ibrowse_lib:get_trace_status/2'
p2306
g2296
I34
tp2307
a(S'ibrowse_lib:get_value/2'
p2308
g2296
I182
tp2309
a(S'ibrowse_lib:get_value/3'
p2310
g2296
I174
tp2311
a(S'ibrowse_lib:parse_url/1'
p2312
g2296
I186
tp2313
a(S'ibrowse_lib:printable_date/0'
p2314
g2296
I369
tp2315
a(S'ibrowse_lib:status_code/1'
p2316
g2296
I106
tp2317
a(S'ibrowse_lib:url_encode/1'
p2318
g2296
I41
tp2319
a(S'ibrowse_socks5:connect/3'
p2320
S'/Users/artemeff/Work/lapka/monitoring/deps/ibrowse/src/ibrowse_socks5.erl'
p2321
I15
tp2322
a(S'ibrowse_sup:init/1'
p2323
S'/Users/artemeff/Work/lapka/monitoring/deps/ibrowse/src/ibrowse_sup.erl'
p2324
I56
tp2325
a(S'ibrowse_sup:start_link/0'
p2326
g2324
I44
tp2327
a(S'ibrowse_test:do_send_req/2'
p2328
S'/Users/artemeff/Work/lapka/monitoring/deps/ibrowse/test/ibrowse_test.erl'
p2329
I153
tp2330
a(S'ibrowse_test:do_test_pipeline_head_timeout/4'
p2331
g2329
I572
tp2332
a(S'ibrowse_test:i_do_async_req_list/4'
p2333
g2329
I381
tp2334
a(S'ibrowse_test:load_test/3'
p2335
g2329
I0
tp2336
a(S'ibrowse_test:send_reqs_1/3'
p2337
g2329
I88
tp2338
a(S'ibrowse_test:test_20122010/0'
p2339
g2329
I606
tp2340
a(S'ibrowse_test:test_20122010/1'
p2341
g2329
I609
tp2342
a(S'ibrowse_test:test_303_response_with_a_body/0'
p2343
g2329
I528
tp2344
a(S'ibrowse_test:test_303_response_with_a_body/1'
p2345
g2329
I532
tp2346
a(S'ibrowse_test:test_303_response_with_no_body/0'
p2347
g2329
I514
tp2348
a(S'ibrowse_test:test_303_response_with_no_body/1'
p2349
g2329
I518
tp2350
a(S'ibrowse_test:test_binary_headers/0'
p2351
g2329
I476
tp2352
a(S'ibrowse_test:test_binary_headers/1'
p2353
g2329
I480
tp2354
a(S'ibrowse_test:test_chunked_streaming_once/0'
p2355
g2329
I311
tp2356
a(S'ibrowse_test:test_generate_body_0/0'
p2357
g2329
I684
tp2358
a(S'ibrowse_test:test_head_response_with_body/0'
p2359
g2329
I498
tp2360
a(S'ibrowse_test:test_head_response_with_body/1'
p2361
g2329
I502
tp2362
a(S'ibrowse_test:test_head_transfer_encoding/0'
p2363
g2329
I459
tp2364
a(S'ibrowse_test:test_head_transfer_encoding/1'
p2365
g2329
I463
tp2366
a(S'ibrowse_test:test_pipeline_head_timeout/0'
p2367
g2329
I544
tp2368
a(S'ibrowse_test:test_pipeline_head_timeout/1'
p2369
g2329
I548
tp2370
a(S'ibrowse_test:test_stream_once/3'
p2371
g2329
I40
tp2372
a(S'ibrowse_test:test_stream_once/4'
p2373
g2329
I43
tp2374
a(S'ibrowse_test:ue_test/0'
p2375
g2329
I441
tp2376
a(S'ibrowse_test:ue_test/1'
p2377
g2329
I443
tp2378
a(S'ibrowse_test:unit_tests/0'
p2379
g2329
I248
tp2380
a(S'ibrowse_test:unit_tests/1'
p2381
g2329
I251
tp2382
a(S'ibrowse_test:unit_tests_1/2'
p2383
g2329
I272
tp2384
a(S'ibrowse_test:verify_chunked_streaming/0'
p2385
g2329
I282
tp2386
a(S'ibrowse_test:verify_chunked_streaming/1'
p2387
g2329
I285
tp2388
a(S'ibrowse_test_server:start_server/2'
p2389
S'/Users/artemeff/Work/lapka/monitoring/deps/ibrowse/test/ibrowse_test_server.erl'
p2390
I16
tp2391
a(S'ibrowse_test_server:stop_server/1'
p2392
g2390
I39
tp2393
a(S'index_handler:handle/2'
p2394
S'/Users/artemeff/Work/lapka/monitoring/apps/web/src/handlers/index_handler.erl'
p2395
I10
tp2396
a(S'index_handler:init/3'
p2397
g2395
I8
tp2398
a(S'index_handler:terminate/3'
p2399
g2395
I9
tp2400
a(S'input_crash_h:init/3'
p2401
S'/Users/artemeff/Work/lapka/monitoring/deps/cowboy/test/handlers/input_crash_h.erl'
p2402
I8
tp2403
a(S'ipgsql:bind/3'
p2404
S'/Users/artemeff/Work/lapka/monitoring/deps/epgsql/src/ipgsql.erl'
p2405
I71
tp2406
a(S'ipgsql:bind/4'
p2407
g2405
I75
tp2408
a(S'ipgsql:cancel/1'
p2409
g2405
I111
tp2410
a(S'ipgsql:close/1'
p2411
g2405
I43
tp2412
a(S'ipgsql:close/2'
p2413
g2405
I101
tp2414
a(S'ipgsql:close/3'
p2415
g2405
I104
tp2416
a(S'ipgsql:connect/2'
p2417
g2405
I27
tp2418
a(S'ipgsql:connect/3'
p2419
g2405
I30
tp2420
a(S'ipgsql:connect/4'
p2421
g2405
I33
tp2422
a(S'ipgsql:connect/5'
p2423
g2405
I39
tp2424
a(S'ipgsql:describe/2'
p2425
g2405
I92
tp2426
a(S'ipgsql:describe/3'
p2427
g2405
I95
tp2428
a(S'ipgsql:equery/2'
p2429
g2405
I54
tp2430
a(S'ipgsql:equery/3'
p2431
g2405
I58
tp2432
a(S'ipgsql:execute/2'
p2433
g2405
I78
tp2434
a(S'ipgsql:execute/3'
p2435
g2405
I81
tp2436
a(S'ipgsql:execute/4'
p2437
g2405
I85
tp2438
a(S'ipgsql:execute_batch/2'
p2439
g2405
I89
tp2440
a(S'ipgsql:get_parameter/2'
p2441
g2405
I47
tp2442
a(S'ipgsql:parse/2'
p2443
g2405
I61
tp2444
a(S'ipgsql:parse/3'
p2445
g2405
I64
tp2446
a(S'ipgsql:parse/4'
p2447
g2405
I68
tp2448
a(S'ipgsql:squery/2'
p2449
g2405
I51
tp2450
a(S'ipgsql:start_link/0'
p2451
g2405
I24
tp2452
a(S'ipgsql:sync/1'
p2453
g2405
I107
tp2454
a(S'jiffy:decode/1'
p2455
S'/Users/artemeff/Work/lapka/monitoring/deps/jiffy/src/jiffy.erl'
p2456
I11
tp2457
a(S'jiffy:decode/2'
p2458
g2456
I15
tp2459
a(S'jiffy:encode/1'
p2460
g2456
I30
tp2461
a(S'jiffy:encode/2'
p2462
g2456
I34
tp2463
a(S'jiffy_utf8:fix/1'
p2464
S'/Users/artemeff/Work/lapka/monitoring/deps/jiffy/src/jiffy_utf8.erl'
p2465
I8
tp2466
a(S'jsx:decode/1'
p2467
S'/Users/artemeff/Work/lapka/monitoring/deps/jsx/src/jsx.erl'
p2468
I64
tp2469
a(S'jsx:decode/2'
p2470
g2468
I65
tp2471
a(S'jsx:decoder/3'
p2472
g2468
I103
tp2473
a(S'jsx:encode/1'
p2474
g2468
I57
tp2475
a(S'jsx:encode/2'
p2476
g2468
I58
tp2477
a(S'jsx:encoder/3'
p2478
g2468
I110
tp2479
a(S'jsx:format/1'
p2480
g2468
I71
tp2481
a(S'jsx:format/2'
p2482
g2468
I72
tp2483
a(S'jsx:handle_event/2'
p2484
g2468
I160
tp2485
a(S'jsx:init/1'
p2486
g2468
I158
tp2487
a(S'jsx:is_json/1'
p2488
g2468
I88
tp2489
a(S'jsx:is_json/2'
p2490
g2468
I89
tp2491
a(S'jsx:is_term/1'
p2492
g2468
I95
tp2493
a(S'jsx:is_term/2'
p2494
g2468
I96
tp2495
a(S'jsx:minify/1'
p2496
g2468
I77
tp2497
a(S'jsx:parser/3'
p2498
g2468
I139
tp2499
a(S'jsx:prettify/1'
p2500
g2468
I82
tp2501
a(S'jsx:resume/3'
p2502
g2468
I145
tp2503
a(S'jsx:special_test_cases/0'
p2504
g2468
I176
tp2505
a(S'jsx:test_cases/0'
p2506
g2468
I164
tp2507
a(S'jsx_config:config_to_list/1'
p2508
S'/Users/artemeff/Work/lapka/monitoring/deps/jsx/src/jsx_config.erl'
p2509
I105
tp2510
a(S'jsx_config:extract_config/1'
p2511
g2509
I155
tp2512
a(S'jsx_config:fake_error_handler/3'
p2513
g2509
I304
tp2514
a(S'jsx_config:parse_config/1'
p2515
g2509
I55
tp2516
a(S'jsx_config:valid_flags/0'
p2517
g2509
I140
tp2518
a(S'jsx_decoder:decoder/3'
p2519
S'/Users/artemeff/Work/lapka/monitoring/deps/jsx/src/jsx_decoder.erl'
p2520
I38
tp2521
a(S'jsx_decoder:resume/6'
p2522
g2520
I53
tp2523
a(S'jsx_encoder:encode/1'
p2524
S'/Users/artemeff/Work/lapka/monitoring/deps/jsx/src/jsx_encoder.erl'
p2525
I37
tp2526
a(S'jsx_encoder:encode/2'
p2527
g2525
I43
tp2528
a(S'jsx_encoder:encoder/3'
p2529
g2525
I30
tp2530
a(S'jsx_encoder:unzip/1'
p2531
g2525
I70
tp2532
a(S'jsx_parser:handle_event/2'
p2533
S'/Users/artemeff/Work/lapka/monitoring/deps/jsx/src/jsx_parser.erl'
p2534
I450
tp2535
a(S'jsx_parser:init/1'
p2536
g2534
I446
tp2537
a(S'jsx_parser:parser/3'
p2538
g2534
I32
tp2539
a(S'jsx_parser:resume/5'
p2540
g2534
I46
tp2541
a(S'jsx_to_json:finish/1'
p2542
S'/Users/artemeff/Work/lapka/monitoring/deps/jsx/src/jsx_to_json.erl'
p2543
I167
tp2544
a(S'jsx_to_json:format/2'
p2545
g2543
I50
tp2546
a(S'jsx_to_json:get_key/1'
p2547
g2543
I228
tp2548
a(S'jsx_to_json:get_value/1'
p2549
g2543
I232
tp2550
a(S'jsx_to_json:handle_event/2'
p2551
g2543
I98
tp2552
a(S'jsx_to_json:init/1'
p2553
g2543
I93
tp2554
a(S'jsx_to_json:insert/2'
p2555
g2543
I186
tp2556
a(S'jsx_to_json:start_array/1'
p2557
g2543
I163
tp2558
a(S'jsx_to_json:start_json/0'
p2559
g2543
I154
tp2560
a(S'jsx_to_json:start_json/1'
p2561
g2543
I156
tp2562
a(S'jsx_to_json:start_object/1'
p2563
g2543
I159
tp2564
a(S'jsx_to_json:to_json/2'
p2565
g2543
I44
tp2566
a(S'jsx_to_term:finish/1'
p2567
S'/Users/artemeff/Work/lapka/monitoring/deps/jsx/src/jsx_to_term.erl'
p2568
I133
tp2569
a(S'jsx_to_term:get_key/1'
p2570
g2568
I158
tp2571
a(S'jsx_to_term:get_value/1'
p2572
g2568
I162
tp2573
a(S'jsx_to_term:handle_event/2'
p2574
g2568
I83
tp2575
a(S'jsx_to_term:init/1'
p2576
g2568
I79
tp2577
a(S'jsx_to_term:insert/2'
p2578
g2568
I142
tp2579
a(S'jsx_to_term:insert/3'
p2580
g2568
I153
tp2581
a(S'jsx_to_term:start_array/1'
p2582
g2568
I129
tp2583
a(S'jsx_to_term:start_object/1'
p2584
g2568
I126
tp2585
a(S'jsx_to_term:start_term/0'
p2586
g2568
I121
tp2587
a(S'jsx_to_term:start_term/1'
p2588
g2568
I123
tp2589
a(S'jsx_to_term:to_term/2'
p2590
g2568
I52
tp2591
a(S'jsx_verify:handle_event/2'
p2592
S'/Users/artemeff/Work/lapka/monitoring/deps/jsx/src/jsx_verify.erl'
p2593
I84
tp2594
a(S'jsx_verify:init/1'
p2595
g2593
I79
tp2596
a(S'jsx_verify:is_json/2'
p2597
g2593
I40
tp2598
a(S'jsx_verify:is_term/2'
p2599
g2593
I48
tp2600
a(S'kernel:config_change/3'
p2601
S'/Users/artemeff/Work/lapka/monitoring/deps/gproc/patches/kernel/kernel.erl'
p2602
I46
tp2603
a(S'kernel:init/1'
p2604
g2602
I88
tp2605
a(S'kernel:start/2'
p2606
g2602
I30
tp2607
a(S'kernel:stop/1'
p2608
g2602
I40
tp2609
a(S'lager:clear_all_traces/0'
p2610
S'/Users/artemeff/Work/lapka/monitoring/deps/lager/src/lager.erl'
p2611
I211
tp2612
a(S'lager:dispatch_log/5'
p2613
g2611
I86
tp2614
a(S'lager:dispatch_log/9'
p2615
g2611
I126
tp2616
a(S'lager:do_log/9'
p2617
g2611
I98
tp2618
a(S'lager:get_loglevel/1'
p2619
g2611
I289
tp2620
a(S'lager:get_loglevels/0'
p2621
g2611
I312
tp2622
a(S'lager:log/3'
p2623
g2611
I131
tp2624
a(S'lager:log/4'
p2625
g2611
I138
tp2626
a(S'lager:md/0'
p2627
g2611
I60
tp2628
a(S'lager:md/1'
p2629
g2611
I69
tp2630
a(S'lager:posix_error/1'
p2631
g2611
I303
tp2632
a(S'lager:pr/2'
p2633
g2611
I364
tp2634
a(S'lager:safe_format/3'
p2635
g2611
I350
tp2636
a(S'lager:safe_format_chop/3'
p2637
g2611
I360
tp2638
a(S'lager:set_loglevel/2'
p2639
g2611
I275
tp2640
a(S'lager:set_loglevel/3'
p2641
g2611
I282
tp2642
a(S'lager:start/0'
p2643
g2611
I45
tp2644
a(S'lager:status/0'
p2645
g2611
I224
tp2646
a(S'lager:stop_trace/1'
p2647
g2611
I191
tp2648
a(S'lager:trace/2'
p2649
g2611
I178
tp2650
a(S'lager:trace/3'
p2651
g2611
I181
tp2652
a(S'lager:trace_console/1'
p2653
g2611
I172
tp2654
a(S'lager:trace_console/2'
p2655
g2611
I175
tp2656
a(S'lager:trace_file/2'
p2657
g2611
I143
tp2658
a(S'lager:trace_file/3'
p2659
g2611
I146
tp2660
a(S'lager:update_loglevel_config/0'
p2661
g2611
I329
tp2662
a(S'lager_app:start/0'
p2663
S'/Users/artemeff/Work/lapka/monitoring/deps/lager/src/lager_app.erl'
p2664
I32
tp2665
a(S'lager_app:start/2'
p2666
g2664
I35
tp2667
a(S'lager_app:stop/1'
p2668
g2664
I121
tp2669
a(S'lager_backend_throttle:code_change/3'
p2670
S'/Users/artemeff/Work/lapka/monitoring/deps/lager/src/lager_backend_throttle.erl'
p2671
I76
tp2672
a(S'lager_backend_throttle:handle_call/2'
p2673
g2671
I43
tp2674
a(S'lager_backend_throttle:handle_event/2'
p2675
g2671
I50
tp2676
a(S'lager_backend_throttle:handle_info/2'
p2677
g2671
I68
tp2678
a(S'lager_backend_throttle:init/1'
p2679
g2671
I38
tp2680
a(S'lager_backend_throttle:terminate/2'
p2681
g2671
I72
tp2682
a(S'lager_config:get/1'
p2683
S'/Users/artemeff/Work/lapka/monitoring/deps/lager/src/lager_config.erl'
p2684
I43
tp2685
a(S'lager_config:get/2'
p2686
g2684
I51
tp2687
a(S'lager_config:new/0'
p2688
g2684
I27
tp2689
a(S'lager_config:set/2'
p2690
g2684
I62
tp2691
a(S'lager_console_backend:code_change/3'
p2692
S'/Users/artemeff/Work/lapka/monitoring/deps/lager/src/lager_console_backend.erl'
p2693
I115
tp2694
a(S'lager_console_backend:handle_call/2'
p2695
g2693
I80
tp2696
a(S'lager_console_backend:handle_event/2'
p2697
g2693
I103
tp2698
a(S'lager_console_backend:handle_info/2'
p2699
g2693
I107
tp2700
a(S'lager_console_backend:init/1'
p2701
g2693
I41
tp2702
a(S'lager_console_backend:terminate/2'
p2703
g2693
I111
tp2704
a(S'lager_crash_backend:code_change/3'
p2705
S'/Users/artemeff/Work/lapka/monitoring/deps/lager/test/lager_crash_backend.erl'
p2706
I67
tp2707
a(S'lager_crash_backend:handle_call/2'
p2708
g2706
I52
tp2709
a(S'lager_crash_backend:handle_event/2'
p2710
g2706
I55
tp2711
a(S'lager_crash_backend:handle_info/2'
p2712
g2706
I58
tp2713
a(S'lager_crash_backend:init/1'
p2714
g2706
I30
tp2715
a(S'lager_crash_backend:terminate/2'
p2716
g2706
I64
tp2717
a(S'lager_crash_log:code_change/3'
p2718
S'/Users/artemeff/Work/lapka/monitoring/deps/lager/src/lager_crash_log.erl'
p2719
I109
tp2720
a(S'lager_crash_log:handle_call/3'
p2721
g2719
I83
tp2722
a(S'lager_crash_log:handle_cast/2'
p2723
g2719
I90
tp2724
a(S'lager_crash_log:handle_info/2'
p2725
g2719
I97
tp2726
a(S'lager_crash_log:init/1'
p2727
g2719
I69
tp2728
a(S'lager_crash_log:start/5'
p2729
g2719
I64
tp2730
a(S'lager_crash_log:start_link/5'
p2731
g2719
I59
tp2732
a(S'lager_crash_log:terminate/2'
p2733
g2719
I105
tp2734
a(S'lager_default_formatter:format/2'
p2735
S'/Users/artemeff/Work/lapka/monitoring/deps/lager/src/lager_default_formatter.erl'
p2736
I76
tp2737
a(S'lager_default_formatter:format/3'
p2738
g2736
I57
tp2739
a(S'lager_file_backend:code_change/3'
p2740
S'/Users/artemeff/Work/lapka/monitoring/deps/lager/src/lager_file_backend.erl'
p2741
I164
tp2742
a(S'lager_file_backend:config_to_id/1'
p2743
g2741
I168
tp2744
a(S'lager_file_backend:handle_call/2'
p2745
g2741
I131
tp2746
a(S'lager_file_backend:handle_event/2'
p2747
g2741
I145
tp2748
a(S'lager_file_backend:handle_info/2'
p2749
g2741
I153
tp2750
a(S'lager_file_backend:init/1'
p2751
g2741
I84
tp2752
a(S'lager_file_backend:terminate/2'
p2753
g2741
I157
tp2754
a(S'lager_format:format/3'
p2755
S'/Users/artemeff/Work/lapka/monitoring/deps/lager/src/lager_format.erl'
p2756
I29
tp2757
a(S'lager_format:format/4'
p2758
g2756
I34
tp2759
a(S'lager_handler_watcher:code_change/3'
p2760
S'/Users/artemeff/Work/lapka/monitoring/deps/lager/src/lager_handler_watcher.erl'
p2761
I86
tp2762
a(S'lager_handler_watcher:handle_call/3'
p2763
g2761
I54
tp2764
a(S'lager_handler_watcher:handle_cast/2'
p2765
g2761
I57
tp2766
a(S'lager_handler_watcher:handle_info/2'
p2767
g2761
I75
tp2768
a(S'lager_handler_watcher:init/1'
p2769
g2761
I50
tp2770
a(S'lager_handler_watcher:start/3'
p2771
g2761
I47
tp2772
a(S'lager_handler_watcher:start_link/3'
p2773
g2761
I44
tp2774
a(S'lager_handler_watcher:terminate/2'
p2775
g2761
I83
tp2776
a(S'lager_handler_watcher_sup:init/1'
p2777
S'/Users/artemeff/Work/lapka/monitoring/deps/lager/src/lager_handler_watcher_sup.erl'
p2778
I34
tp2779
a(S'lager_handler_watcher_sup:start_link/0'
p2780
g2778
I31
tp2781
a(S'lager_msg:datetime/1'
p2782
S'/Users/artemeff/Work/lapka/monitoring/deps/lager/src/lager_msg.erl'
p2783
I45
tp2784
a(S'lager_msg:destinations/1'
p2785
g2783
I61
tp2786
a(S'lager_msg:message/1'
p2787
g2783
I37
tp2788
a(S'lager_msg:metadata/1'
p2789
g2783
I57
tp2790
a(S'lager_msg:new/4'
p2791
g2783
I32
tp2792
a(S'lager_msg:new/5'
p2793
g2783
I26
tp2794
a(S'lager_msg:severity/1'
p2795
g2783
I49
tp2796
a(S'lager_msg:severity_as_int/1'
p2797
g2783
I53
tp2798
a(S'lager_msg:timestamp/1'
p2799
g2783
I41
tp2800
a(S'lager_stdlib:is_my_error_report/1'
p2801
S'/Users/artemeff/Work/lapka/monitoring/deps/lager/src/lager_stdlib.erl'
p2802
I127
tp2803
a(S'lager_stdlib:is_my_info_report/1'
p2804
g2802
I132
tp2805
a(S'lager_stdlib:maybe_utc/1'
p2806
g2802
I80
tp2807
a(S'lager_stdlib:proc_lib_format/2'
p2808
g2802
I146
tp2809
a(S'lager_stdlib:string_p/1'
p2810
g2802
I37
tp2811
a(S'lager_stdlib:sup_get/2'
p2812
g2802
I136
tp2813
a(S'lager_stdlib:write_time/2'
p2814
g2802
I72
tp2815
a(S'lager_sup:init/1'
p2816
S'/Users/artemeff/Work/lapka/monitoring/deps/lager/src/lager_sup.erl'
p2817
I34
tp2818
a(S'lager_sup:start_link/0'
p2819
g2817
I31
tp2820
a(S'lager_syslog_backend:code_change/3'
p2821
S'/Users/artemeff/Work/lapka/monitoring/deps/lager_syslog/src/lager_syslog_backend.erl'
p2822
I114
tp2823
a(S'lager_syslog_backend:config_to_id/1'
p2824
g2822
I118
tp2825
a(S'lager_syslog_backend:handle_call/2'
p2826
g2822
I76
tp2827
a(S'lager_syslog_backend:handle_event/2'
p2828
g2822
I102
tp2829
a(S'lager_syslog_backend:handle_info/2'
p2830
g2822
I106
tp2831
a(S'lager_syslog_backend:init/1'
p2832
g2822
I43
tp2833
a(S'lager_syslog_backend:terminate/2'
p2834
g2822
I110
tp2835
a(S'lager_test_backend:code_change/3'
p2836
S'/Users/artemeff/Work/lapka/monitoring/deps/lager/test/lager_test_backend.erl'
p2837
I86
tp2838
a(S'lager_test_backend:count/0'
p2839
g2837
I94
tp2840
a(S'lager_test_backend:count_ignored/0'
p2841
g2837
I97
tp2842
a(S'lager_test_backend:flush/0'
p2843
g2837
I100
tp2844
a(S'lager_test_backend:handle_call/2'
p2845
g2837
I38
tp2846
a(S'lager_test_backend:handle_event/2'
p2847
g2837
I77
tp2848
a(S'lager_test_backend:handle_info/2'
p2849
g2837
I80
tp2850
a(S'lager_test_backend:init/1'
p2851
g2837
I35
tp2852
a(S'lager_test_backend:pop/0'
p2853
g2837
I91
tp2854
a(S'lager_test_backend:print_state/0'
p2855
g2837
I103
tp2856
a(S'lager_test_backend:terminate/2'
p2857
g2837
I83
tp2858
a(S'lager_transform:parse_transform/2'
p2859
S'/Users/artemeff/Work/lapka/monitoring/deps/lager/src/lager_transform.erl'
p2860
I31
tp2861
a(S'lager_trunc_io:format/3'
p2862
S'/Users/artemeff/Work/lapka/monitoring/deps/lager/src/lager_trunc_io.erl'
p2863
I59
tp2864
a(S'lager_trunc_io:format/4'
p2865
g2863
I62
tp2866
a(S'lager_trunc_io:fprint/2'
p2867
g2863
I72
tp2868
a(S'lager_trunc_io:fprint/3'
p2869
g2863
I79
tp2870
a(S'lager_trunc_io:perf/0'
p2871
g2863
I507
tp2872
a(S'lager_trunc_io:perf/3'
p2873
g2863
I516
tp2874
a(S'lager_trunc_io:perf1/0'
p2875
g2863
I521
tp2876
a(S'lager_trunc_io:print/2'
p2877
g2863
I71
tp2878
a(S'lager_trunc_io:print/3'
p2879
g2863
I78
tp2880
a(S'lager_trunc_io:safe/2'
p2881
g2863
I93
tp2882
a(S'lager_trunc_io:test/0'
p2883
g2863
I474
tp2884
a(S'lager_trunc_io:test/2'
p2885
g2863
I478
tp2886
a(S'lager_util:calculate_next_rotation/1'
p2887
S'/Users/artemeff/Work/lapka/monitoring/deps/lager/src/lager_util.erl'
p2888
I271
tp2889
a(S'lager_util:check_traces/4'
p2890
g2888
I431
tp2891
a(S'lager_util:config_to_levels/1'
p2892
g2888
I79
tp2893
a(S'lager_util:config_to_mask/1'
p2894
g2888
I57
tp2895
a(S'lager_util:ensure_logfile/4'
p2896
g2888
I146
tp2897
a(S'lager_util:format_time/0'
p2898
g2888
I212
tp2899
a(S'lager_util:format_time/1'
p2900
g2888
I215
tp2901
a(S'lager_util:is_loggable/3'
p2902
g2888
I455
tp2903
a(S'lager_util:level_to_num/1'
p2904
g2888
I36
tp2905
a(S'lager_util:levels/0'
p2906
g2888
I33
tp2907
a(S'lager_util:localtime_ms/0'
p2908
g2888
I180
tp2909
a(S'lager_util:localtime_ms/1'
p2910
g2888
I184
tp2911
a(S'lager_util:mask_to_levels/1'
p2912
g2888
I64
tp2913
a(S'lager_util:maybe_utc/1'
p2914
g2888
I190
tp2915
a(S'lager_util:num_to_level/1'
p2916
g2888
I46
tp2917
a(S'lager_util:open_logfile/2'
p2918
g2888
I124
tp2919
a(S'lager_util:parse_rotation_date_spec/1'
p2920
g2888
I248
tp2921
a(S'lager_util:rotate_logfile/2'
p2922
g2888
I199
tp2923
a(S'lager_util:trace_filter/1'
p2924
g2888
I357
tp2925
a(S'lager_util:trace_filter/2'
p2926
g2888
I364
tp2927
a(S'lager_util:validate_trace/1'
p2928
g2888
I367
tp2929
a(S'lhttpc:get_body_part/1'
p2930
S'/Users/artemeff/Work/lapka/monitoring/deps/lhttpc/src/lhttpc.erl'
p2931
I470
tp2932
a(S'lhttpc:get_body_part/2'
p2933
g2931
I488
tp2934
a(S'lhttpc:request/4'
p2935
g2931
I118
tp2936
a(S'lhttpc:request/5'
p2937
g2931
I142
tp2938
a(S'lhttpc:request/6'
p2939
g2931
I184
tp2940
a(S'lhttpc:request/9'
p2941
g2931
I320
tp2942
a(S'lhttpc:send_body_part/2'
p2943
g2931
I355
tp2944
a(S'lhttpc:send_body_part/3'
p2945
g2931
I381
tp2946
a(S'lhttpc:send_trailers/2'
p2947
g2931
I427
tp2948
a(S'lhttpc:send_trailers/3'
p2949
g2931
I0
tp2950
a(S'lhttpc:start/0'
p2951
g2931
I82
tp2952
a(S'lhttpc:start/2'
p2953
g2931
I54
tp2954
a(S'lhttpc:stop/0'
p2955
g2931
I94
tp2956
a(S'lhttpc:stop/1'
p2957
g2931
I67
tp2958
a(S'lhttpc_client:request/9'
p2959
S'/Users/artemeff/Work/lapka/monitoring/deps/lhttpc/src/lhttpc_client.erl'
p2960
I77
tp2961
a(S'lhttpc_lib:dec/1'
p2962
S'/Users/artemeff/Work/lapka/monitoring/deps/lhttpc/src/lhttpc_lib.erl'
p2963
I250
tp2964
a(S'lhttpc_lib:format_hdrs/1'
p2965
g2963
I174
tp2966
a(S'lhttpc_lib:format_request/7'
p2967
g2963
I148
tp2968
a(S'lhttpc_lib:header_value/2'
p2969
g2963
I56
tp2970
a(S'lhttpc_lib:header_value/3'
p2971
g2963
I71
tp2972
a(S'lhttpc_lib:maybe_atom_to_list/1'
p2973
g2963
I89
tp2974
a(S'lhttpc_lib:normalize_method/1'
p2975
g2963
I168
tp2976
a(S'lhttpc_lib:parse_url/1'
p2977
g2963
I102
tp2978
a(S'lhttpc_manager:code_change/3'
p2979
S'/Users/artemeff/Work/lapka/monitoring/deps/lhttpc/src/lhttpc_manager.erl'
p2980
I161
tp2981
a(S'lhttpc_manager:connection_count/0'
p2982
g2980
I65
tp2983
a(S'lhttpc_manager:connection_count/1'
p2984
g2980
I79
tp2985
a(S'lhttpc_manager:handle_call/3'
p2986
g2980
I111
tp2987
a(S'lhttpc_manager:handle_cast/2'
p2988
g2980
I127
tp2989
a(S'lhttpc_manager:handle_info/2'
p2990
g2980
I137
tp2991
a(S'lhttpc_manager:init/1'
p2992
g2980
I103
tp2993
a(S'lhttpc_manager:start_link/0'
p2994
g2980
I98
tp2995
a(S'lhttpc_manager:terminate/2'
p2996
g2980
I156
tp2997
a(S'lhttpc_manager:update_connection_timeout/1'
p2998
g2980
I90
tp2999
a(S'lhttpc_sock:close/2'
p3000
S'/Users/artemeff/Work/lapka/monitoring/deps/lhttpc/src/lhttpc_sock.erl'
p3001
I156
tp3002
a(S'lhttpc_sock:connect/5'
p3003
g3001
I61
tp3004
a(S'lhttpc_sock:controlling_process/3'
p3005
g3001
I128
tp3006
a(S'lhttpc_sock:recv/2'
p3007
g3001
I79
tp3008
a(S'lhttpc_sock:recv/3'
p3009
g3001
I95
tp3010
a(S'lhttpc_sock:send/3'
p3011
g3001
I113
tp3012
a(S'lhttpc_sock:setopts/3'
p3013
g3001
I143
tp3014
a(S'lhttpc_sup:init/1'
p3015
S'/Users/artemeff/Work/lapka/monitoring/deps/lhttpc/src/lhttpc_sup.erl'
p3016
I53
tp3017
a(S'lhttpc_sup:start_link/0'
p3018
g3016
I48
tp3019
a(S'lhttpc_tests:test_no/2'
p3020
S'/Users/artemeff/Work/lapka/monitoring/deps/lhttpc/test/lhttpc_tests.erl'
p3021
I94
tp3022
a(S'lisp:equal/2'
p3023
S'/Users/artemeff/Work/lapka/monitoring/deps/merl/examples/lisp.erl'
p3024
I136
tp3025
a(S'lisp:eval/1'
p3026
g3024
I27
tp3027
a(S'lisp:gt/2'
p3028
g3024
I144
tp3029
a(S'lisp:init/0'
p3030
g3024
I31
tp3031
a(S'lisp:knot/1'
p3032
g3024
I157
tp3033
a(S'lisp_test:fib/1'
p3034
S'/Users/artemeff/Work/lapka/monitoring/deps/merl/examples/lisp_test.erl'
p3035
I87
tp3036
a(S'lisp_test:lisp_fib/1'
p3037
g3035
I90
tp3038
a(S'lispc:eval/1'
p3039
S'/Users/artemeff/Work/lapka/monitoring/deps/merl/examples/lispc.erl'
p3040
I26
tp3041
a(S'long_polling_h:info/3'
p3042
S'/Users/artemeff/Work/lapka/monitoring/deps/cowboy/test/handlers/long_polling_h.erl'
p3043
I17
tp3044
a(S'long_polling_h:init/3'
p3045
g3043
I13
tp3046
a(S'long_polling_h:terminate/3'
p3047
g3043
I24
tp3048
a(S'loop_handler_body_h:info/3'
p3049
S'/Users/artemeff/Work/lapka/monitoring/deps/cowboy/test/handlers/loop_handler_body_h.erl'
p3050
I17
tp3051
a(S'loop_handler_body_h:init/3'
p3052
g3050
I13
tp3053
a(S'loop_handler_body_h:terminate/3'
p3054
g3050
I23
tp3055
a(S'loop_handler_timeout_h:info/3'
p3056
S'/Users/artemeff/Work/lapka/monitoring/deps/cowboy/test/handlers/loop_handler_timeout_h.erl'
p3057
I18
tp3058
a(S'loop_handler_timeout_h:init/3'
p3059
g3057
I14
tp3060
a(S'loop_handler_timeout_h:terminate/3'
p3061
g3057
I22
tp3062
a(S'make_doc:edoc/0'
p3063
S'/Users/artemeff/Work/lapka/monitoring/deps/lhttpc/util/make_doc.erl'
p3064
I31
tp3065
a(S'markdown_converter:execute/2'
p3066
S'/Users/artemeff/Work/lapka/monitoring/deps/cowboy/examples/markdown_middleware/src/markdown_converter.erl'
p3067
I8
tp3068
a(S'markdown_middleware_app:start/2'
p3069
S'/Users/artemeff/Work/lapka/monitoring/deps/cowboy/examples/markdown_middleware/src/markdown_middleware_app.erl'
p3070
I13
tp3071
a(S'markdown_middleware_app:stop/1'
p3072
g3070
I25
tp3073
a(S'markdown_middleware_sup:init/1'
p3074
S'/Users/artemeff/Work/lapka/monitoring/deps/cowboy/examples/markdown_middleware/src/markdown_middleware_sup.erl'
p3075
I21
tp3076
a(S'markdown_middleware_sup:start_link/0'
p3077
g3075
I16
tp3078
a(S'merl:compile/1'
p3079
S'/Users/artemeff/Work/lapka/monitoring/deps/merl/src/merl.erl'
p3080
I54
tp3081
a(S'merl:compile/2'
p3082
g3080
I61
tp3083
a(S'merl:compile_and_load/1'
p3084
g3080
I73
tp3085
a(S'merl:compile_and_load/2'
p3086
g3080
I80
tp3087
a(S'merl:match/2'
p3088
g3080
I579
tp3089
a(S'merl:meta_template/1'
p3090
g3080
I408
tp3091
a(S'merl:print/1'
p3092
g3080
I112
tp3093
a(S'merl:qquote/2'
p3094
g3080
I172
tp3095
a(S'merl:qquote/3'
p3096
g3080
I185
tp3097
a(S'merl:quote/1'
p3098
g3080
I195
tp3099
a(S'merl:quote/2'
p3100
g3080
I166
tp3101
a(S'merl:show/1'
p3102
g3080
I121
tp3103
a(S'merl:subst/2'
p3104
g3080
I530
tp3105
a(S'merl:switch/2'
p3106
g3080
I741
tp3107
a(S'merl:template/1'
p3108
g3080
I336
tp3109
a(S'merl:template_vars/1'
p3110
g3080
I465
tp3111
a(S'merl:term/1'
p3112
g3080
I105
tp3113
a(S'merl:tree/1'
p3114
g3080
I500
tp3115
a(S'merl:tsubst/2'
p3116
g3080
I546
tp3117
a(S'merl:var/1'
p3118
g3080
I97
tp3119
a(S'merl_build:add_attribute/3'
p3120
S'/Users/artemeff/Work/lapka/monitoring/deps/merl/examples/merl_build.erl'
p3121
I0
tp3122
a(S'merl_build:add_function/4'
p3123
g3121
I0
tp3124
a(S'merl_build:add_import/3'
p3125
g3121
I0
tp3126
a(S'merl_build:add_record/3'
p3127
g3121
I0
tp3128
a(S'merl_build:init_module/1'
p3129
g3121
I40
tp3130
a(S'merl_build:module_forms/1'
p3131
g3121
I0
tp3132
a(S'merl_build:set_file/2'
p3133
g3121
I76
tp3134
a(S'merl_transform:parse_transform/2'
p3135
S'/Users/artemeff/Work/lapka/monitoring/deps/merl/src/merl_transform.erl'
p3136
I36
tp3137
a(S'newrelic:connect/2'
p3138
S'/Users/artemeff/Work/lapka/monitoring/deps/newrelic/src/newrelic.erl'
p3139
I49
tp3140
a(S'newrelic:get_redirect_host/0'
p3141
g3139
I36
tp3142
a(S'newrelic:push/3'
p3143
g3139
I20
tp3144
a(S'newrelic:push_error_data/3'
p3145
g3139
I86
tp3146
a(S'newrelic:push_metric_data/3'
p3147
g3139
I75
tp3148
a(S'newrelic:sample_data/0'
p3149
g3139
I164
tp3150
a(S'newrelic:sample_error_data/0'
p3151
g3139
I285
tp3152
a(S'newrelic_app:start/2'
p3153
S'/Users/artemeff/Work/lapka/monitoring/deps/newrelic/src/newrelic_app.erl'
p3154
I12
tp3155
a(S'newrelic_app:stop/1'
p3156
g3154
I21
tp3157
a(S'newrelic_poller:code_change/3'
p3158
S'/Users/artemeff/Work/lapka/monitoring/deps/newrelic/src/newrelic_poller.erl'
p3159
I67
tp3160
a(S'newrelic_poller:handle_call/3'
p3161
g3159
I31
tp3162
a(S'newrelic_poller:handle_cast/2'
p3163
g3159
I35
tp3164
a(S'newrelic_poller:handle_info/2'
p3165
g3159
I38
tp3166
a(S'newrelic_poller:init/1'
p3167
g3159
I27
tp3168
a(S'newrelic_poller:start_link/1'
p3169
g3159
I17
tp3170
a(S'newrelic_poller:start_link/2'
p3171
g3159
I20
tp3172
a(S'newrelic_poller:terminate/2'
p3173
g3159
I64
tp3174
a(S'newrelic_sup:init/1'
p3175
S'/Users/artemeff/Work/lapka/monitoring/deps/newrelic/src/newrelic_sup.erl'
p3176
I26
tp3177
a(S'newrelic_sup:start_link/0'
p3178
g3176
I19
tp3179
a(S'notify_and_wait_protocol:init/2'
p3180
S'/Users/artemeff/Work/lapka/monitoring/deps/ranch/test/notify_and_wait_protocol.erl'
p3181
I11
tp3182
a(S'notify_and_wait_protocol:start_link/4'
p3183
g3181
I7
tp3184
a(S'pgsql:bind/3'
p3185
S'/Users/artemeff/Work/lapka/monitoring/deps/epgsql/src/pgsql.erl'
p3186
I136
tp3187
a(S'pgsql:bind/4'
p3188
g3186
I141
tp3189
a(S'pgsql:cancel/1'
p3190
g3186
I189
tp3191
a(S'pgsql:close/1'
p3192
g3186
I85
tp3193
a(S'pgsql:close/2'
p3194
g3186
I179
tp3195
a(S'pgsql:close/3'
p3196
g3186
I182
tp3197
a(S'pgsql:connect/2'
p3198
g3186
I60
tp3199
a(S'pgsql:connect/3'
p3200
g3186
I63
tp3201
a(S'pgsql:connect/4'
p3202
g3186
I66
tp3203
a(S'pgsql:connect/5'
p3204
g3186
I73
tp3205
a(S'pgsql:describe/2'
p3206
g3186
I169
tp3207
a(S'pgsql:describe/3'
p3208
g3186
I172
tp3209
a(S'pgsql:equery/2'
p3210
g3186
I97
tp3211
a(S'pgsql:equery/3'
p3212
g3186
I101
tp3213
a(S'pgsql:equery/4'
p3214
g3186
I112
tp3215
a(S'pgsql:execute/2'
p3216
g3186
I148
tp3217
a(S'pgsql:execute/3'
p3218
g3186
I151
tp3219
a(S'pgsql:execute/4'
p3220
g3186
I159
tp3221
a(S'pgsql:execute_batch/2'
p3222
g3186
I164
tp3223
a(S'pgsql:get_parameter/2'
p3224
g3186
I89
tp3225
a(S'pgsql:parse/2'
p3226
g3186
I123
tp3227
a(S'pgsql:parse/3'
p3228
g3186
I126
tp3229
a(S'pgsql:parse/4'
p3230
g3186
I131
tp3231
a(S'pgsql:squery/2'
p3232
g3186
I94
tp3233
a(S'pgsql:sync/1'
p3234
g3186
I185
tp3235
a(S'pgsql:sync_on_error/2'
p3236
g3186
I209
tp3237
a(S'pgsql:with_transaction/2'
p3238
g3186
I197
tp3239
a(S'pgsql_binary:decode/2'
p3240
S'/Users/artemeff/Work/lapka/monitoring/deps/epgsql/src/pgsql_binary.erl'
p3241
I36
tp3242
a(S'pgsql_binary:encode/2'
p3243
g3241
I11
tp3244
a(S'pgsql_binary:supports/1'
p3245
g3241
I121
tp3246
a(S'pgsql_cast:bind/3'
p3247
S'/Users/artemeff/Work/lapka/monitoring/deps/epgsql/test/pgsql_cast.erl'
p3248
I77
tp3249
a(S'pgsql_cast:bind/4'
p3250
g3248
I80
tp3251
a(S'pgsql_cast:close/1'
p3252
g3248
I39
tp3253
a(S'pgsql_cast:close/2'
p3254
g3248
I110
tp3255
a(S'pgsql_cast:close/3'
p3256
g3248
I113
tp3257
a(S'pgsql_cast:connect/2'
p3258
g3248
I20
tp3259
a(S'pgsql_cast:connect/3'
p3260
g3248
I23
tp3261
a(S'pgsql_cast:connect/4'
p3262
g3248
I26
tp3263
a(S'pgsql_cast:describe/2'
p3264
g3248
I102
tp3265
a(S'pgsql_cast:describe/3'
p3266
g3248
I105
tp3267
a(S'pgsql_cast:equery/2'
p3268
g3248
I49
tp3269
a(S'pgsql_cast:equery/3'
p3270
g3248
I53
tp3271
a(S'pgsql_cast:execute/2'
p3272
g3248
I86
tp3273
a(S'pgsql_cast:execute/3'
p3274
g3248
I89
tp3275
a(S'pgsql_cast:execute/4'
p3276
g3248
I92
tp3277
a(S'pgsql_cast:execute_batch/2'
p3278
g3248
I96
tp3279
a(S'pgsql_cast:get_parameter/2'
p3280
g3248
I42
tp3281
a(S'pgsql_cast:parse/2'
p3282
g3248
I65
tp3283
a(S'pgsql_cast:parse/3'
p3284
g3248
I68
tp3285
a(S'pgsql_cast:parse/4'
p3286
g3248
I71
tp3287
a(S'pgsql_cast:receive_result/2'
p3288
g3248
I134
tp3289
a(S'pgsql_cast:squery/2'
p3290
g3248
I45
tp3291
a(S'pgsql_cast:sync/1'
p3292
g3248
I117
tp3293
a(S'pgsql_cast:sync_on_error/2'
p3294
g3248
I144
tp3295
a(S'pgsql_cast:with_transaction/2'
p3296
g3248
I122
tp3297
a(S'pgsql_fdatetime:decode/2'
p3298
S'/Users/artemeff/Work/lapka/monitoring/deps/epgsql/src/pgsql_fdatetime.erl'
p3299
I17
tp3300
a(S'pgsql_fdatetime:encode/2'
p3301
g3299
I24
tp3302
a(S'pgsql_idatetime:decode/2'
p3303
S'/Users/artemeff/Work/lapka/monitoring/deps/epgsql/src/pgsql_idatetime.erl'
p3304
I20
tp3305
a(S'pgsql_idatetime:encode/2'
p3306
g3304
I27
tp3307
a(S'pgsql_incremental:bind/3'
p3308
S'/Users/artemeff/Work/lapka/monitoring/deps/epgsql/test/pgsql_incremental.erl'
p3309
I77
tp3310
a(S'pgsql_incremental:bind/4'
p3311
g3309
I80
tp3312
a(S'pgsql_incremental:close/1'
p3313
g3309
I37
tp3314
a(S'pgsql_incremental:close/2'
p3315
g3309
I113
tp3316
a(S'pgsql_incremental:close/3'
p3317
g3309
I116
tp3318
a(S'pgsql_incremental:connect/2'
p3319
g3309
I19
tp3320
a(S'pgsql_incremental:connect/3'
p3321
g3309
I22
tp3322
a(S'pgsql_incremental:connect/4'
p3323
g3309
I25
tp3324
a(S'pgsql_incremental:describe/2'
p3325
g3309
I102
tp3326
a(S'pgsql_incremental:describe/3'
p3327
g3309
I105
tp3328
a(S'pgsql_incremental:equery/2'
p3329
g3309
I50
tp3330
a(S'pgsql_incremental:equery/3'
p3331
g3309
I53
tp3332
a(S'pgsql_incremental:execute/2'
p3333
g3309
I86
tp3334
a(S'pgsql_incremental:execute/3'
p3335
g3309
I89
tp3336
a(S'pgsql_incremental:execute/4'
p3337
g3309
I92
tp3338
a(S'pgsql_incremental:execute_batch/2'
p3339
g3309
I96
tp3340
a(S'pgsql_incremental:get_parameter/2'
p3341
g3309
I40
tp3342
a(S'pgsql_incremental:parse/2'
p3343
g3309
I65
tp3344
a(S'pgsql_incremental:parse/3'
p3345
g3309
I68
tp3346
a(S'pgsql_incremental:parse/4'
p3347
g3309
I71
tp3348
a(S'pgsql_incremental:squery/2'
p3349
g3309
I43
tp3350
a(S'pgsql_incremental:sync/1'
p3351
g3309
I120
tp3352
a(S'pgsql_incremental:with_transaction/2'
p3353
g3309
I125
tp3354
a(S'pgsql_sock:auth/2'
p3355
S'/Users/artemeff/Work/lapka/monitoring/deps/epgsql/src/pgsql_sock.erl'
p3356
I447
tp3357
a(S'pgsql_sock:cancel/1'
p3358
g3356
I88
tp3359
a(S'pgsql_sock:close/1'
p3360
g3356
I81
tp3361
a(S'pgsql_sock:code_change/3'
p3362
g3356
I150
tp3363
a(S'pgsql_sock:get_parameter/2'
p3364
g3356
I85
tp3365
a(S'pgsql_sock:handle_call/3'
p3366
g3356
I96
tp3367
a(S'pgsql_sock:handle_cast/2'
p3368
g3356
I115
tp3369
a(S'pgsql_sock:handle_info/2'
p3370
g3356
I137
tp3371
a(S'pgsql_sock:init/1'
p3372
g3356
I93
tp3373
a(S'pgsql_sock:initializing/2'
p3374
g3356
I487
tp3375
a(S'pgsql_sock:on_message/2'
p3376
g3356
I512
tp3377
a(S'pgsql_sock:start_link/0'
p3378
g3356
I78
tp3379
a(S'pgsql_sock:terminate/2'
p3380
g3356
I146
tp3381
a(S'pgsql_tests:run_tests/0'
p3382
S'/Users/artemeff/Work/lapka/monitoring/deps/epgsql/test/pgsql_tests.erl'
p3383
I716
tp3384
a(S'pgsql_types:oid2type/1'
p3385
S'/Users/artemeff/Work/lapka/monitoring/deps/epgsql/src/pgsql_types.erl'
p3386
I5
tp3387
a(S'pgsql_types:type2oid/1'
p3388
g3386
I98
tp3389
a(S'pgsql_wire:decode_columns/2'
p3390
S'/Users/artemeff/Work/lapka/monitoring/deps/epgsql/src/pgsql_wire.erl'
p3391
I110
tp3392
a(S'pgsql_wire:decode_complete/1'
p3393
g3391
I128
tp3394
a(S'pgsql_wire:decode_data/2'
p3395
g3391
I95
tp3396
a(S'pgsql_wire:decode_error/1'
p3397
g3391
I60
tp3398
a(S'pgsql_wire:decode_message/1'
p3399
g3391
I22
tp3400
a(S'pgsql_wire:decode_strings/1'
p3401
g3391
I44
tp3402
a(S'pgsql_wire:encode/1'
p3403
g3391
I86
tp3404
a(S'pgsql_wire:encode/2'
p3405
g3391
I90
tp3406
a(S'pgsql_wire:encode_formats/1'
p3407
g3391
I158
tp3408
a(S'pgsql_wire:encode_parameters/1'
p3409
g3391
I174
tp3410
a(S'pgsql_wire:encode_types/1'
p3411
g3391
I144
tp3412
a(S'pgsql_wire:format/1'
p3413
g3391
I167
tp3414
a(S'po_generator:generate_file/3'
p3415
S'/Users/artemeff/Work/lapka/monitoring/deps/erlydtl/src/i18n/po_generator.erl'
p3416
I18
tp3417
a(S'po_scanner:scan/1'
p3418
S'/Users/artemeff/Work/lapka/monitoring/deps/erlydtl/src/i18n/po_scanner.erl'
p3419
I17
tp3420
a(S'poolboy:checkin/2'
p3421
S'/Users/artemeff/Work/lapka/monitoring/deps/poolboy/src/poolboy.erl'
p3422
I60
tp3423
a(S'poolboy:checkout/1'
p3424
g3422
I41
tp3425
a(S'poolboy:checkout/2'
p3426
g3422
I45
tp3427
a(S'poolboy:checkout/3'
p3428
g3422
I50
tp3429
a(S'poolboy:child_spec/2'
p3430
g3422
I80
tp3431
a(S'poolboy:child_spec/3'
p3432
g3422
I87
tp3433
a(S'poolboy:code_change/3'
p3434
g3422
I240
tp3435
a(S'poolboy:handle_call/3'
p3436
g3422
I182
tp3437
a(S'poolboy:handle_cast/2'
p3438
g3422
I152
tp3439
a(S'poolboy:handle_info/2'
p3440
g3422
I204
tp3441
a(S'poolboy:init/1'
p3442
g3422
I122
tp3443
a(S'poolboy:start/1'
p3444
g3422
I93
tp3445
a(S'poolboy:start/2'
p3446
g3422
I99
tp3447
a(S'poolboy:start_link/1'
p3448
g3422
I104
tp3449
a(S'poolboy:start_link/2'
p3450
g3422
I111
tp3451
a(S'poolboy:status/1'
p3452
g3422
I119
tp3453
a(S'poolboy:stop/1'
p3454
g3422
I115
tp3455
a(S'poolboy:terminate/2'
p3456
g3422
I236
tp3457
a(S'poolboy:transaction/2'
p3458
g3422
I65
tp3459
a(S'poolboy:transaction/3'
p3460
g3422
I70
tp3461
a(S'poolboy_sup:init/1'
p3462
S'/Users/artemeff/Work/lapka/monitoring/deps/poolboy/src/poolboy_sup.erl'
p3463
I11
tp3464
a(S'poolboy_sup:start_link/2'
p3465
g3463
I8
tp3466
a(S'poolboy_test_worker:code_change/3'
p3467
S'/Users/artemeff/Work/lapka/monitoring/deps/poolboy/test/poolboy_test_worker.erl'
p3468
I29
tp3469
a(S'poolboy_test_worker:handle_call/3'
p3470
g3468
I15
tp3471
a(S'poolboy_test_worker:handle_cast/2'
p3472
g3468
I20
tp3473
a(S'poolboy_test_worker:handle_info/2'
p3474
g3468
I23
tp3475
a(S'poolboy_test_worker:init/1'
p3476
g3468
I12
tp3477
a(S'poolboy_test_worker:start_link/1'
p3478
g3468
I9
tp3479
a(S'poolboy_test_worker:terminate/2'
p3480
g3468
I26
tp3481
a(S'ranch:accept_ack/1'
p3482
S'/Users/artemeff/Work/lapka/monitoring/deps/ranch/src/ranch.erl'
p3483
I90
tp3484
a(S'ranch:child_spec/6'
p3485
g3483
I0
tp3486
a(S'ranch:filter_options/3'
p3487
g3483
I123
tp3488
a(S'ranch:get_max_connections/1'
p3489
g3483
I106
tp3490
a(S'ranch:get_port/1'
p3491
g3483
I102
tp3492
a(S'ranch:get_protocol_options/1'
p3493
g3483
I114
tp3494
a(S'ranch:remove_connection/1'
p3495
g3483
I96
tp3496
a(S'ranch:require/1'
p3497
g3483
I154
tp3498
a(S'ranch:set_max_connections/2'
p3499
g3483
I110
tp3500
a(S'ranch:set_option_default/3'
p3501
g3483
I147
tp3502
a(S'ranch:set_protocol_options/2'
p3503
g3483
I118
tp3504
a(S'ranch:start_listener/6'
p3505
g3483
I0
tp3506
a(S'ranch:stop_listener/1'
p3507
g3483
I71
tp3508
a(S'ranch_acceptor:loop/3'
p3509
S'/Users/artemeff/Work/lapka/monitoring/deps/ranch/src/ranch_acceptor.erl'
p3510
I27
tp3511
a(S'ranch_acceptor:start_link/3'
p3512
g3510
I22
tp3513
a(S'ranch_acceptors_sup:init/1'
p3514
S'/Users/artemeff/Work/lapka/monitoring/deps/ranch/src/ranch_acceptors_sup.erl'
p3515
I26
tp3516
a(S'ranch_acceptors_sup:start_link/4'
p3517
g3515
I23
tp3518
a(S'ranch_app:profile_output/0'
p3519
S'/Users/artemeff/Work/lapka/monitoring/deps/ranch/src/ranch_app.erl'
p3520
I30
tp3521
a(S'ranch_app:start/2'
p3522
g3520
I22
tp3523
a(S'ranch_app:stop/1'
p3524
g3520
I26
tp3525
a(S'ranch_conns_sup:active_connections/1'
p3526
S'/Users/artemeff/Work/lapka/monitoring/deps/ranch/src/ranch_conns_sup.erl'
p3527
I78
tp3528
a(S'ranch_conns_sup:init/7'
p3529
g3527
I99
tp3530
a(S'ranch_conns_sup:start_link/6'
p3531
g3527
I50
tp3532
a(S'ranch_conns_sup:start_protocol/2'
p3533
g3527
I71
tp3534
a(S'ranch_conns_sup:system_code_change/4'
p3535
g3527
I251
tp3536
a(S'ranch_conns_sup:system_continue/3'
p3537
g3527
I244
tp3538
a(S'ranch_conns_sup:system_terminate/4'
p3539
g3527
I248
tp3540
a(S'ranch_listener_sup:init/1'
p3541
S'/Users/artemeff/Work/lapka/monitoring/deps/ranch/src/ranch_listener_sup.erl'
p3542
I30
tp3543
a(S'ranch_listener_sup:start_link/6'
p3544
g3542
I23
tp3545
a(S'ranch_server:cleanup_listener_opts/1'
p3546
S'/Users/artemeff/Work/lapka/monitoring/deps/ranch/src/ranch_server.erl'
p3547
I58
tp3548
a(S'ranch_server:code_change/3'
p3549
g3547
I153
tp3550
a(S'ranch_server:count_connections/1'
p3551
g3547
I98
tp3552
a(S'ranch_server:get_connections_sup/1'
p3553
g3547
I70
tp3554
a(S'ranch_server:get_max_connections/1'
p3555
g3547
I86
tp3556
a(S'ranch_server:get_port/1'
p3557
g3547
I78
tp3558
a(S'ranch_server:get_protocol_options/1'
p3559
g3547
I94
tp3560
a(S'ranch_server:handle_call/3'
p3561
g3547
I108
tp3562
a(S'ranch_server:handle_cast/2'
p3563
g3547
I138
tp3564
a(S'ranch_server:handle_info/2'
p3565
g3547
I147
tp3566
a(S'ranch_server:init/1'
p3567
g3547
I103
tp3568
a(S'ranch_server:set_connections_sup/2'
p3569
g3547
I65
tp3570
a(S'ranch_server:set_max_connections/2'
p3571
g3547
I82
tp3572
a(S'ranch_server:set_new_listener_opts/3'
p3573
g3547
I54
tp3574
a(S'ranch_server:set_port/2'
p3575
g3547
I74
tp3576
a(S'ranch_server:set_protocol_options/2'
p3577
g3547
I90
tp3578
a(S'ranch_server:start_link/0'
p3579
g3547
I50
tp3580
a(S'ranch_server:terminate/2'
p3581
g3547
I150
tp3582
a(S'ranch_ssl:accept/2'
p3583
S'/Users/artemeff/Work/lapka/monitoring/deps/ranch/src/ranch_ssl.erl'
p3584
I97
tp3585
a(S'ranch_ssl:accept_ack/2'
p3586
g3584
I101
tp3587
a(S'ranch_ssl:close/1'
p3588
g3584
I190
tp3589
a(S'ranch_ssl:connect/3'
p3590
g3584
I122
tp3591
a(S'ranch_ssl:connect/4'
p3592
g3584
I130
tp3593
a(S'ranch_ssl:controlling_process/2'
p3594
g3584
I171
tp3595
a(S'ranch_ssl:listen/1'
p3596
g3584
I72
tp3597
a(S'ranch_ssl:messages/0'
p3598
g3584
I69
tp3599
a(S'ranch_ssl:name/0'
p3600
g3584
I67
tp3601
a(S'ranch_ssl:peername/1'
p3602
g3584
I176
tp3603
a(S'ranch_ssl:recv/3'
p3604
g3584
I137
tp3605
a(S'ranch_ssl:send/2'
p3606
g3584
I141
tp3607
a(S'ranch_ssl:sendfile/2'
p3608
g3584
I146
tp3609
a(S'ranch_ssl:sendfile/4'
p3610
g3584
I152
tp3611
a(S'ranch_ssl:sendfile/5'
p3612
g3584
I161
tp3613
a(S'ranch_ssl:setopts/2'
p3614
g3584
I166
tp3615
a(S'ranch_ssl:shutdown/2'
p3616
g3584
I186
tp3617
a(S'ranch_ssl:sockname/1'
p3618
g3584
I181
tp3619
a(S'ranch_sup:init/1'
p3620
S'/Users/artemeff/Work/lapka/monitoring/deps/ranch/src/ranch_sup.erl'
p3621
I25
tp3622
a(S'ranch_sup:start_link/0'
p3623
g3621
I22
tp3624
a(S'ranch_tcp:accept/2'
p3625
S'/Users/artemeff/Work/lapka/monitoring/deps/ranch/src/ranch_tcp.erl'
p3626
I68
tp3627
a(S'ranch_tcp:accept_ack/2'
p3628
g3626
I72
tp3629
a(S'ranch_tcp:close/1'
p3630
g3626
I170
tp3631
a(S'ranch_tcp:connect/3'
p3632
g3626
I79
tp3633
a(S'ranch_tcp:connect/4'
p3634
g3626
I87
tp3635
a(S'ranch_tcp:controlling_process/2'
p3636
g3626
I151
tp3637
a(S'ranch_tcp:listen/1'
p3638
g3626
I53
tp3639
a(S'ranch_tcp:messages/0'
p3640
g3626
I50
tp3641
a(S'ranch_tcp:name/0'
p3642
g3626
I48
tp3643
a(S'ranch_tcp:peername/1'
p3644
g3626
I156
tp3645
a(S'ranch_tcp:recv/3'
p3646
g3626
I94
tp3647
a(S'ranch_tcp:send/2'
p3648
g3626
I98
tp3649
a(S'ranch_tcp:sendfile/2'
p3650
g3626
I103
tp3651
a(S'ranch_tcp:sendfile/4'
p3652
g3626
I109
tp3653
a(S'ranch_tcp:sendfile/5'
p3654
g3626
I128
tp3655
a(S'ranch_tcp:setopts/2'
p3656
g3626
I146
tp3657
a(S'ranch_tcp:shutdown/2'
p3658
g3626
I166
tp3659
a(S'ranch_tcp:sockname/1'
p3660
g3626
I161
tp3661
a(S'ranch_transport:sendfile/6'
p3662
S'/Users/artemeff/Work/lapka/monitoring/deps/ranch/src/ranch_transport.erl'
p3663
I82
tp3664
a(S'remove_conn_and_wait_protocol:init/2'
p3665
S'/Users/artemeff/Work/lapka/monitoring/deps/ranch/test/remove_conn_and_wait_protocol.erl'
p3666
I11
tp3667
a(S'remove_conn_and_wait_protocol:start_link/4'
p3668
g3666
I7
tp3669
a(S'rest_basic_auth_app:start/2'
p3670
S'/Users/artemeff/Work/lapka/monitoring/deps/cowboy/examples/rest_basic_auth/src/rest_basic_auth_app.erl'
p3671
I13
tp3672
a(S'rest_basic_auth_app:stop/1'
p3673
g3671
I24
tp3674
a(S'rest_basic_auth_sup:init/1'
p3675
S'/Users/artemeff/Work/lapka/monitoring/deps/cowboy/examples/rest_basic_auth/src/rest_basic_auth_sup.erl'
p3676
I21
tp3677
a(S'rest_basic_auth_sup:start_link/0'
p3678
g3676
I16
tp3679
a(S'rest_empty_resource:init/3'
p3680
S'/Users/artemeff/Work/lapka/monitoring/deps/cowboy/test/http_SUITE_data/rest_empty_resource.erl'
p3681
I4
tp3682
a(S'rest_expires:content_types_provided/2'
p3683
S'/Users/artemeff/Work/lapka/monitoring/deps/cowboy/test/http_SUITE_data/rest_expires.erl'
p3684
I12
tp3685
a(S'rest_expires:expires/2'
p3686
g3684
I18
tp3687
a(S'rest_expires:get_text_plain/2'
p3688
g3684
I15
tp3689
a(S'rest_expires:init/3'
p3690
g3684
I9
tp3691
a(S'rest_expires:last_modified/2'
p3692
g3684
I21
tp3693
a(S'rest_expires_binary:content_types_provided/2'
p3694
S'/Users/artemeff/Work/lapka/monitoring/deps/cowboy/test/http_SUITE_data/rest_expires_binary.erl'
p3695
I11
tp3696
a(S'rest_expires_binary:expires/2'
p3697
g3695
I17
tp3698
a(S'rest_expires_binary:get_text_plain/2'
p3699
g3695
I14
tp3700
a(S'rest_expires_binary:init/3'
p3701
g3695
I8
tp3702
a(S'rest_forbidden_resource:allowed_methods/2'
p3703
S'/Users/artemeff/Work/lapka/monitoring/deps/cowboy/test/http_SUITE_data/rest_forbidden_resource.erl'
p3704
I12
tp3705
a(S'rest_forbidden_resource:content_types_accepted/2'
p3706
g3704
I23
tp3707
a(S'rest_forbidden_resource:content_types_provided/2'
p3708
g3704
I20
tp3709
a(S'rest_forbidden_resource:forbidden/2'
p3710
g3704
I15
tp3711
a(S'rest_forbidden_resource:from_text/2'
p3712
g3704
I29
tp3713
a(S'rest_forbidden_resource:init/3'
p3714
g3704
I6
tp3715
a(S'rest_forbidden_resource:rest_init/2'
p3716
g3704
I9
tp3717
a(S'rest_forbidden_resource:to_text/2'
p3718
g3704
I26
tp3719
a(S'rest_hello_world_app:start/2'
p3720
S'/Users/artemeff/Work/lapka/monitoring/deps/cowboy/examples/rest_hello_world/src/rest_hello_world_app.erl'
p3721
I13
tp3722
a(S'rest_hello_world_app:stop/1'
p3723
g3721
I24
tp3724
a(S'rest_hello_world_sup:init/1'
p3725
S'/Users/artemeff/Work/lapka/monitoring/deps/cowboy/examples/rest_hello_world/src/rest_hello_world_sup.erl'
p3726
I21
tp3727
a(S'rest_hello_world_sup:start_link/0'
p3728
g3726
I16
tp3729
a(S'rest_missing_callbacks:allowed_methods/2'
p3730
S'/Users/artemeff/Work/lapka/monitoring/deps/cowboy/test/http_SUITE_data/rest_missing_callbacks.erl'
p3731
I10
tp3732
a(S'rest_missing_callbacks:content_types_accepted/2'
p3733
g3731
I13
tp3734
a(S'rest_missing_callbacks:content_types_provided/2'
p3735
g3731
I19
tp3736
a(S'rest_missing_callbacks:init/3'
p3737
g3731
I7
tp3738
a(S'rest_nodelete_resource:allowed_methods/2'
p3739
S'/Users/artemeff/Work/lapka/monitoring/deps/cowboy/test/http_SUITE_data/rest_nodelete_resource.erl'
p3740
I8
tp3741
a(S'rest_nodelete_resource:content_types_provided/2'
p3742
g3740
I12
tp3743
a(S'rest_nodelete_resource:get_text_plain/2'
p3744
g3740
I15
tp3745
a(S'rest_nodelete_resource:init/3'
p3746
g3740
I5
tp3747
a(S'rest_param_all:allowed_methods/2'
p3748
S'/Users/artemeff/Work/lapka/monitoring/deps/cowboy/test/http_SUITE_data/rest_param_all.erl'
p3749
I13
tp3750
a(S'rest_param_all:content_types_accepted/2'
p3751
g3749
I32
tp3752
a(S'rest_param_all:content_types_provided/2'
p3753
g3749
I16
tp3754
a(S'rest_param_all:get_text_plain/2'
p3755
g3749
I19
tp3756
a(S'rest_param_all:init/3'
p3757
g3749
I10
tp3758
a(S'rest_param_all:put_text_plain/2'
p3759
g3749
I35
tp3760
a(S'rest_pastebin_app:start/2'
p3761
S'/Users/artemeff/Work/lapka/monitoring/deps/cowboy/examples/rest_pastebin/src/rest_pastebin_app.erl'
p3762
I13
tp3763
a(S'rest_pastebin_app:stop/1'
p3764
g3762
I24
tp3765
a(S'rest_pastebin_sup:init/1'
p3766
S'/Users/artemeff/Work/lapka/monitoring/deps/cowboy/examples/rest_pastebin/src/rest_pastebin_sup.erl'
p3767
I21
tp3768
a(S'rest_pastebin_sup:start_link/0'
p3769
g3767
I16
tp3770
a(S'rest_patch_resource:allowed_methods/2'
p3771
S'/Users/artemeff/Work/lapka/monitoring/deps/cowboy/test/http_SUITE_data/rest_patch_resource.erl'
p3772
I8
tp3773
a(S'rest_patch_resource:content_types_accepted/2'
p3774
g3772
I17
tp3775
a(S'rest_patch_resource:content_types_provided/2'
p3776
g3772
I11
tp3777
a(S'rest_patch_resource:get_text_plain/2'
p3778
g3772
I14
tp3779
a(S'rest_patch_resource:init/3'
p3780
g3772
I5
tp3781
a(S'rest_patch_resource:patch_text_plain/2'
p3782
g3772
I25
tp3783
a(S'rest_post_charset_resource:allowed_methods/2'
p3784
S'/Users/artemeff/Work/lapka/monitoring/deps/cowboy/test/http_SUITE_data/rest_post_charset_resource.erl'
p3785
I7
tp3786
a(S'rest_post_charset_resource:content_types_accepted/2'
p3787
g3785
I10
tp3788
a(S'rest_post_charset_resource:from_text/2'
p3789
g3785
I14
tp3790
a(S'rest_post_charset_resource:init/3'
p3791
g3785
I4
tp3792
a(S'rest_postonly_resource:allowed_methods/2'
p3793
S'/Users/artemeff/Work/lapka/monitoring/deps/cowboy/test/http_SUITE_data/rest_postonly_resource.erl'
p3794
I7
tp3795
a(S'rest_postonly_resource:content_types_accepted/2'
p3796
g3794
I10
tp3797
a(S'rest_postonly_resource:from_text/2'
p3798
g3794
I13
tp3799
a(S'rest_postonly_resource:init/3'
p3800
g3794
I4
tp3801
a(S'rest_resource_etags:content_types_provided/2'
p3802
S'/Users/artemeff/Work/lapka/monitoring/deps/cowboy/test/http_SUITE_data/rest_resource_etags.erl'
p3803
I28
tp3804
a(S'rest_resource_etags:generate_etag/2'
p3805
g3803
I7
tp3806
a(S'rest_resource_etags:get_text_plain/2'
p3807
g3803
I31
tp3808
a(S'rest_resource_etags:init/3'
p3809
g3803
I4
tp3810
a(S'rest_simple_resource:content_types_provided/2'
p3811
S'/Users/artemeff/Work/lapka/monitoring/deps/cowboy/test/http_SUITE_data/rest_simple_resource.erl'
p3812
I7
tp3813
a(S'rest_simple_resource:get_text_plain/2'
p3814
g3812
I10
tp3815
a(S'rest_simple_resource:init/3'
p3816
g3812
I4
tp3817
a(S'rest_stream_response_app:start/2'
p3818
S'/Users/artemeff/Work/lapka/monitoring/deps/cowboy/examples/rest_stream_response/src/rest_stream_response_app.erl'
p3819
I13
tp3820
a(S'rest_stream_response_app:stop/1'
p3821
g3819
I26
tp3822
a(S'rest_stream_response_sup:init/1'
p3823
S'/Users/artemeff/Work/lapka/monitoring/deps/cowboy/examples/rest_stream_response/src/rest_stream_response_sup.erl'
p3824
I21
tp3825
a(S'rest_stream_response_sup:start_link/0'
p3826
g3824
I16
tp3827
a(S'reverse_protocol:code_change/3'
p3828
S'/Users/artemeff/Work/lapka/monitoring/deps/ranch/examples/tcp_reverse/src/reverse_protocol.erl'
p3829
I65
tp3830
a(S'reverse_protocol:handle_call/3'
p3831
g3829
I56
tp3832
a(S'reverse_protocol:handle_cast/2'
p3833
g3829
I59
tp3834
a(S'reverse_protocol:handle_info/2'
p3835
g3829
I47
tp3836
a(S'reverse_protocol:init/1'
p3837
g3829
I32
tp3838
a(S'reverse_protocol:init/4'
p3839
g3829
I34
tp3840
a(S'reverse_protocol:start_link/4'
p3841
g3829
I25
tp3842
a(S'reverse_protocol:terminate/2'
p3843
g3829
I62
tp3844
a(S'run_test:run/0'
p3845
S'/Users/artemeff/Work/lapka/monitoring/deps/lhttpc/util/run_test.erl'
p3846
I39
tp3847
a(S'sendfile_SUITE:all/0'
p3848
S'/Users/artemeff/Work/lapka/monitoring/deps/ranch/test/sendfile_SUITE.erl'
p3849
I40
tp3850
a(S'sendfile_SUITE:end_per_group/2'
p3851
g3849
I85
tp3852
a(S'sendfile_SUITE:end_per_suite/1'
p3853
g3849
I68
tp3854
a(S'sendfile_SUITE:filename/1'
p3855
g3849
I94
tp3856
a(S'sendfile_SUITE:groups/0'
p3857
g3849
I46
tp3858
a(S'sendfile_SUITE:init_per_group/2'
p3859
g3849
I75
tp3860
a(S'sendfile_SUITE:init_per_suite/1'
p3861
g3849
I60
tp3862
a(S'sendfile_SUITE:rawfile/1'
p3863
g3849
I108
tp3864
a(S'sendfile_SUITE:rawfile_bytes_large/1'
p3865
g3849
I125
tp3866
a(S'sendfile_SUITE:rawfile_bytes_zero/1'
p3867
g3849
I143
tp3868
a(S'sendfile_SUITE:rawfile_chunk_size_large/1'
p3869
g3849
I160
tp3870
a(S'sendfile_SUITE:rawfile_offset_large/1'
p3871
g3849
I179
tp3872
a(S'sendfile_SUITE:rawfile_range_large/1'
p3873
g3849
I194
tp3874
a(S'sendfile_SUITE:rawfile_range_medium/1'
p3875
g3849
I218
tp3876
a(S'sendfile_SUITE:rawfile_range_small/1'
p3877
g3849
I241
tp3878
a(S'sendfile_SUITE:ssl_chunk_size/1'
p3879
g3849
I263
tp3880
a(S'sendfile_SUITE:suite/0'
p3881
g3849
I43
tp3882
a(S'shutdown_SUITE:all/0'
p3883
S'/Users/artemeff/Work/lapka/monitoring/deps/ranch/test/shutdown_SUITE.erl'
p3884
I34
tp3885
a(S'shutdown_SUITE:brutal_kill/1'
p3886
g3884
I47
tp3887
a(S'shutdown_SUITE:end_per_suite/1'
p3888
g3884
I41
tp3889
a(S'shutdown_SUITE:infinity/1'
p3890
g3884
I67
tp3891
a(S'shutdown_SUITE:infinity_trap_exit/1'
p3892
g3884
I87
tp3893
a(S'shutdown_SUITE:init_per_suite/1'
p3894
g3884
I37
tp3895
a(S'shutdown_SUITE:timeout/1'
p3896
g3884
I117
tp3897
a(S'shutdown_SUITE:timeout_trap_exit/1'
p3898
g3884
I137
tp3899
a(S'simple_load:client/2'
p3900
S'/Users/artemeff/Work/lapka/monitoring/deps/lhttpc/test/simple_load.erl'
p3901
I11
tp3902
a(S'simple_load:handle_continue/5'
p3903
g3901
I56
tp3904
a(S'simple_load:handle_request/6'
p3905
g3901
I59
tp3906
a(S'simple_load:init/2'
p3907
g3901
I53
tp3908
a(S'simple_load:start_client/2'
p3909
g3901
I11
tp3910
a(S'simple_load:start_client/3'
p3911
g3901
I0
tp3912
a(S'simple_load:start_server/0'
p3913
g3901
I48
tp3914
a(S'simple_load:terminate/2'
p3915
g3901
I72
tp3916
a(S'socket_server:accept/1'
p3917
S'/Users/artemeff/Work/lapka/monitoring/deps/lhttpc/test/socket_server.erl'
p3918
I53
tp3919
a(S'socket_server:connect/2'
p3920
g3918
I42
tp3921
a(S'socket_server:do_accept/1'
p3922
g3918
I56
tp3923
a(S'socket_server:listen/0'
p3924
g3918
I48
tp3925
a(S'socket_server:open/0'
p3926
g3918
I33
tp3927
a(S'sources_parser:parse/0'
p3928
S'/Users/artemeff/Work/lapka/monitoring/deps/erlydtl/src/i18n/sources_parser.erl'
p3929
I63
tp3930
a(S'sources_parser:parse/1'
p3931
g3929
I67
tp3932
a(S'sources_parser:parse_content/2'
p3933
g3929
I118
tp3934
a(S'sources_parser:parse_file/1'
p3935
g3929
I108
tp3936
a(S'sources_parser:parse_pattern/1'
p3937
g3929
I99
tp3938
a(S'sources_parser:phrase_info/2'
p3939
g3929
I56
tp3940
a(S'sources_parser:process_content/2'
p3941
g3929
I70
tp3942
a(S'special_process:init/1'
p3943
S'/Users/artemeff/Work/lapka/monitoring/deps/lager/test/special_process.erl'
p3944
I7
tp3945
a(S'special_process:start/0'
p3946
g3944
I4
tp3947
a(S'ssl_hello_world_app:start/2'
p3948
S'/Users/artemeff/Work/lapka/monitoring/deps/cowboy/examples/ssl_hello_world/src/ssl_hello_world_app.erl'
p3949
I13
tp3950
a(S'ssl_hello_world_app:stop/1'
p3951
g3949
I28
tp3952
a(S'ssl_hello_world_sup:init/1'
p3953
S'/Users/artemeff/Work/lapka/monitoring/deps/cowboy/examples/ssl_hello_world/src/ssl_hello_world_sup.erl'
p3954
I21
tp3955
a(S'ssl_hello_world_sup:start_link/0'
p3956
g3954
I16
tp3957
a(S'static_world_app:start/2'
p3958
S'/Users/artemeff/Work/lapka/monitoring/deps/cowboy/examples/static_world/src/static_world_app.erl'
p3959
I13
tp3960
a(S'static_world_app:stop/1'
p3961
g3959
I25
tp3962
a(S'static_world_sup:init/1'
p3963
S'/Users/artemeff/Work/lapka/monitoring/deps/cowboy/examples/static_world/src/static_world_sup.erl'
p3964
I21
tp3965
a(S'static_world_sup:start_link/0'
p3966
g3964
I16
tp3967
a(S'statman_aggregator:code_change/3'
p3968
S'/Users/artemeff/Work/lapka/monitoring/deps/statman/src/statman_aggregator.erl'
p3969
I83
tp3970
a(S'statman_aggregator:get_keys/0'
p3971
g3969
I34
tp3972
a(S'statman_aggregator:get_window/1'
p3973
g3969
I31
tp3974
a(S'statman_aggregator:handle_call/3'
p3975
g3969
I65
tp3976
a(S'statman_aggregator:handle_cast/2'
p3977
g3969
I0
tp3978
a(S'statman_aggregator:handle_info/2'
p3979
g3969
I77
tp3980
a(S'statman_aggregator:init/1'
p3981
g3969
I41
tp3982
a(S'statman_aggregator:start_link/0'
p3983
g3969
I28
tp3984
a(S'statman_aggregator:terminate/2'
p3985
g3969
I80
tp3986
a(S'statman_app:start/2'
p3987
S'/Users/artemeff/Work/lapka/monitoring/deps/statman/src/statman_app.erl'
p3988
I12
tp3989
a(S'statman_app:stop/1'
p3990
g3988
I20
tp3991
a(S'statman_counter:counters/0'
p3992
S'/Users/artemeff/Work/lapka/monitoring/deps/statman/src/statman_counter.erl'
p3993
I38
tp3994
a(S'statman_counter:decr/1'
p3995
g3993
I34
tp3996
a(S'statman_counter:decr/2'
p3997
g3993
I35
tp3998
a(S'statman_counter:get/1'
p3999
g3993
I20
tp4000
a(S'statman_counter:get_all/0'
p4001
g3993
I28
tp4002
a(S'statman_counter:incr/1'
p4003
g3993
I32
tp4004
a(S'statman_counter:incr/2'
p4005
g3993
I58
tp4006
a(S'statman_counter:init/0'
p4007
g3993
I15
tp4008
a(S'statman_counter:reset/2'
p4009
g3993
I41
tp4010
a(S'statman_counter:set/2'
p4011
g3993
I41
tp4012
a(S'statman_gauge:decr/1'
p4013
S'/Users/artemeff/Work/lapka/monitoring/deps/statman/src/statman_gauge.erl'
p4014
I21
tp4015
a(S'statman_gauge:decr/2'
p4016
g4014
I22
tp4017
a(S'statman_gauge:expire/0'
p4018
g4014
I34
tp4019
a(S'statman_gauge:get_all/0'
p4020
g4014
I40
tp4021
a(S'statman_gauge:incr/1'
p4022
g4014
I19
tp4023
a(S'statman_gauge:incr/2'
p4024
g4014
I25
tp4025
a(S'statman_gauge:init/0'
p4026
g4014
I8
tp4027
a(S'statman_gauge:set/2'
p4028
g4014
I12
tp4029
a(S'statman_gauge_poller:add_gauge/1'
p4030
S'/Users/artemeff/Work/lapka/monitoring/deps/statman/src/statman_gauge_poller.erl'
p4031
I19
tp4032
a(S'statman_gauge_poller:code_change/3'
p4033
g4031
I53
tp4034
a(S'statman_gauge_poller:handle_call/3'
p4035
g4031
I0
tp4036
a(S'statman_gauge_poller:handle_cast/2'
p4037
g4031
I39
tp4038
a(S'statman_gauge_poller:handle_info/2'
p4039
g4031
I42
tp4040
a(S'statman_gauge_poller:init/1'
p4041
g4031
I29
tp4042
a(S'statman_gauge_poller:remove_gauge/1'
p4043
g4031
I22
tp4044
a(S'statman_gauge_poller:start_link/0'
p4045
g4031
I16
tp4046
a(S'statman_gauge_poller:terminate/2'
p4047
g4031
I50
tp4048
a(S'statman_histogram:bin/1'
p4049
S'/Users/artemeff/Work/lapka/monitoring/deps/statman/src/statman_histogram.erl'
p4050
I89
tp4051
a(S'statman_histogram:clear/1'
p4052
g4050
I40
tp4053
a(S'statman_histogram:get_data/1'
p4054
g4050
I46
tp4055
a(S'statman_histogram:init/0'
p4056
g4050
I27
tp4057
a(S'statman_histogram:keys/0'
p4058
g4050
I35
tp4059
a(S'statman_histogram:record_value/2'
p4060
g4050
I31
tp4061
a(S'statman_histogram:reset/2'
p4062
g4050
I78
tp4063
a(S'statman_histogram:summary/1'
p4064
g4050
I53
tp4065
a(S'statman_merger:add_subscriber/1'
p4066
S'/Users/artemeff/Work/lapka/monitoring/deps/statman/src/statman_merger.erl'
p4067
I25
tp4068
a(S'statman_merger:code_change/3'
p4069
g4067
I71
tp4070
a(S'statman_merger:handle_call/3'
p4071
g4067
I0
tp4072
a(S'statman_merger:handle_cast/2'
p4073
g4067
I0
tp4074
a(S'statman_merger:handle_info/2'
p4075
g4067
I55
tp4076
a(S'statman_merger:init/1'
p4077
g4067
I36
tp4078
a(S'statman_merger:merge/1'
p4079
g4067
I78
tp4080
a(S'statman_merger:remove_subscriber/1'
p4081
g4067
I28
tp4082
a(S'statman_merger:start_link/0'
p4083
g4067
I22
tp4084
a(S'statman_merger:terminate/2'
p4085
g4067
I68
tp4086
a(S'statman_server:add_subscriber/1'
p4087
S'/Users/artemeff/Work/lapka/monitoring/deps/statman/src/statman_server.erl'
p4088
I25
tp4089
a(S'statman_server:code_change/3'
p4090
g4088
I68
tp4091
a(S'statman_server:handle_call/3'
p4092
g4088
I0
tp4093
a(S'statman_server:handle_cast/2'
p4094
g4088
I52
tp4095
a(S'statman_server:handle_info/2'
p4096
g4088
I55
tp4097
a(S'statman_server:init/1'
p4098
g4088
I38
tp4099
a(S'statman_server:remove_subscriber/1'
p4100
g4088
I28
tp4101
a(S'statman_server:report/0'
p4102
g4088
I31
tp4103
a(S'statman_server:start_link/1'
p4104
g4088
I22
tp4105
a(S'statman_server:terminate/2'
p4106
g4088
I65
tp4107
a(S'statman_sup:init/1'
p4108
S'/Users/artemeff/Work/lapka/monitoring/deps/statman/src/statman_sup.erl'
p4109
I10
tp4110
a(S'statman_sup:start_link/0'
p4111
g4109
I7
tp4112
a(S'stream_handler:info/3'
p4113
S'/Users/artemeff/Work/lapka/monitoring/deps/bullet/examples/clock/src/stream_handler.erl'
p4114
I25
tp4115
a(S'stream_handler:init/4'
p4116
g4114
I13
tp4117
a(S'stream_handler:stream/3'
p4118
g4114
I18
tp4119
a(S'stream_handler:terminate/2'
p4120
g4114
I34
tp4121
a(S'supervisor:behaviour_info/1'
p4122
S'/Users/artemeff/Work/lapka/monitoring/deps/gproc/patches/stdlib/supervisor.erl'
p4123
I59
tp4124
a(S'supervisor:check_childspecs/1'
p4125
g4123
I102
tp4126
a(S'supervisor:code_change/3'
p4127
g4123
I371
tp4128
a(S'supervisor:delete_child/2'
p4129
g4123
I84
tp4130
a(S'supervisor:handle_call/3'
p4131
g4123
I245
tp4132
a(S'supervisor:handle_cast/2'
p4133
g4123
I334
tp4134
a(S'supervisor:handle_info/2'
p4135
g4123
I343
tp4136
a(S'supervisor:init/1'
p4137
g4123
I114
tp4138
a(S'supervisor:restart_child/2'
p4139
g4123
I81
tp4140
a(S'supervisor:start_child/2'
p4141
g4123
I78
tp4142
a(S'supervisor:start_link/2'
p4143
g4123
I69
tp4144
a(S'supervisor:start_link/3'
p4145
g4123
I72
tp4146
a(S'supervisor:terminate/2'
p4147
g4123
I358
tp4148
a(S'supervisor:terminate_child/2'
p4149
g4123
I93
tp4150
a(S'supervisor:which_children/1'
p4151
g4123
I96
tp4152
a(S'sync_error_logger:error_msg/1'
p4153
S'/Users/artemeff/Work/lapka/monitoring/deps/lager/test/sync_error_logger.erl'
p4154
I50
tp4155
a(S'sync_error_logger:error_msg/2'
p4156
g4154
I53
tp4157
a(S'sync_error_logger:error_report/1'
p4158
g4154
I69
tp4159
a(S'sync_error_logger:error_report/2'
p4160
g4154
I72
tp4161
a(S'sync_error_logger:info_msg/1'
p4162
g4154
I38
tp4163
a(S'sync_error_logger:info_msg/2'
p4164
g4154
I41
tp4165
a(S'sync_error_logger:info_report/1'
p4166
g4154
I56
tp4167
a(S'sync_error_logger:info_report/2'
p4168
g4154
I59
tp4169
a(S'sync_error_logger:warning_msg/1'
p4170
g4154
I44
tp4171
a(S'sync_error_logger:warning_msg/2'
p4172
g4154
I47
tp4173
a(S'sync_error_logger:warning_report/1'
p4174
g4154
I62
tp4175
a(S'sync_error_logger:warning_report/2'
p4176
g4154
I65
tp4177
a(S'sys:change_code/4'
p4178
S'/Users/artemeff/Work/lapka/monitoring/deps/gproc/patches/stdlib/sys.erl'
p4179
I43
tp4180
a(S'sys:change_code/5'
p4181
g4179
I45
tp4182
a(S'sys:debug_options/1'
p4183
g4179
I339
tp4184
a(S'sys:get_debug/3'
p4185
g4179
I310
tp4186
a(S'sys:get_status/1'
p4187
g4179
I40
tp4188
a(S'sys:get_status/2'
p4189
g4179
I41
tp4190
a(S'sys:handle_debug/4'
p4191
g4179
I157
tp4192
a(S'sys:handle_system_msg/6'
p4193
g4179
I134
tp4194
a(S'sys:install/2'
p4195
g4179
I79
tp4196
a(S'sys:install/3'
p4197
g4179
I81
tp4198
a(S'sys:log/2'
p4199
g4179
I56
tp4200
a(S'sys:log/3'
p4201
g4179
I58
tp4202
a(S'sys:log_to_file/2'
p4203
g4179
I66
tp4204
a(S'sys:log_to_file/3'
p4205
g4179
I68
tp4206
a(S'sys:no_debug/1'
p4207
g4179
I76
tp4208
a(S'sys:no_debug/2'
p4209
g4179
I77
tp4210
a(S'sys:print_log/1'
p4211
g4179
I316
tp4212
a(S'sys:reg/3'
p4213
g4179
I48
tp4214
a(S'sys:reg/4'
p4215
g4179
I50
tp4216
a(S'sys:remove/2'
p4217
g4179
I84
tp4218
a(S'sys:remove/3'
p4219
g4179
I86
tp4220
a(S'sys:resume/1'
p4221
g4179
I37
tp4222
a(S'sys:resume/2'
p4223
g4179
I38
tp4224
a(S'sys:statistics/2'
p4225
g4179
I71
tp4226
a(S'sys:statistics/3'
p4227
g4179
I73
tp4228
a(S'sys:suspend/1'
p4229
g4179
I34
tp4230
a(S'sys:suspend/2'
p4231
g4179
I35
tp4232
a(S'sys:trace/2'
p4233
g4179
I61
tp4234
a(S'sys:trace/3'
p4235
g4179
I63
tp4236
a(S'syslog:close/1'
p4237
S'/Users/artemeff/Work/lapka/monitoring/deps/syslog/src/syslog.erl'
p4238
I94
tp4239
a(S'syslog:code_change/3'
p4240
g4238
I143
tp4241
a(S'syslog:handle_call/3'
p4242
g4238
I129
tp4243
a(S'syslog:handle_cast/2'
p4244
g4238
I132
tp4245
a(S'syslog:handle_info/2'
p4246
g4238
I137
tp4247
a(S'syslog:init/1'
p4248
g4238
I101
tp4249
a(S'syslog:log/3'
p4250
g4238
I83
tp4251
a(S'syslog:log/4'
p4252
g4238
I91
tp4253
a(S'syslog:open/3'
p4254
g4238
I70
tp4255
a(S'syslog:start/0'
p4256
g4238
I61
tp4257
a(S'syslog:start_link/0'
p4258
g4238
I64
tp4259
a(S'syslog:stop/0'
p4260
g4238
I67
tp4261
a(S'syslog:terminate/2'
p4262
g4238
I140
tp4263
a(S'syslog_app:start/2'
p4264
S'/Users/artemeff/Work/lapka/monitoring/deps/syslog/src/syslog_app.erl'
p4265
I12
tp4266
a(S'syslog_app:stop/1'
p4267
g4265
I15
tp4268
a(S'syslog_sup:init/1'
p4269
S'/Users/artemeff/Work/lapka/monitoring/deps/syslog/src/syslog_sup.erl'
p4270
I26
tp4271
a(S'syslog_sup:start_link/0'
p4272
g4270
I19
tp4273
a(S'tcp_echo_app:start/2'
p4274
S'/Users/artemeff/Work/lapka/monitoring/deps/ranch/examples/tcp_echo/src/tcp_echo_app.erl'
p4275
I13
tp4276
a(S'tcp_echo_app:stop/1'
p4277
g4275
I18
tp4278
a(S'tcp_echo_sup:init/1'
p4279
S'/Users/artemeff/Work/lapka/monitoring/deps/ranch/examples/tcp_echo/src/tcp_echo_sup.erl'
p4280
I21
tp4281
a(S'tcp_echo_sup:start_link/0'
p4282
g4280
I16
tp4283
a(S'tcp_reverse_app:start/2'
p4284
S'/Users/artemeff/Work/lapka/monitoring/deps/ranch/examples/tcp_reverse/src/tcp_reverse_app.erl'
p4285
I13
tp4286
a(S'tcp_reverse_app:stop/1'
p4287
g4285
I18
tp4288
a(S'tcp_reverse_sup:init/1'
p4289
S'/Users/artemeff/Work/lapka/monitoring/deps/ranch/examples/tcp_reverse/src/tcp_reverse_sup.erl'
p4290
I21
tp4291
a(S'tcp_reverse_sup:start_link/0'
p4292
g4290
I16
tp4293
a(S'toppage_handler:allowed_methods/2'
p4294
S'/Users/artemeff/Work/lapka/monitoring/deps/cowboy/examples/rest_pastebin/src/toppage_handler.erl'
p4295
I24
tp4296
a(S'toppage_handler:content_types_accepted/2'
p4297
g4295
I33
tp4298
a(S'toppage_handler:content_types_provided/2'
p4299
S'/Users/artemeff/Work/lapka/monitoring/deps/cowboy/examples/rest_basic_auth/src/toppage_handler.erl'
p4300
I23
tp4301
a(S'toppage_handler:content_types_provided/2'
p4302
S'/Users/artemeff/Work/lapka/monitoring/deps/cowboy/examples/rest_hello_world/src/toppage_handler.erl'
p4303
I15
tp4304
a(S'toppage_handler:content_types_provided/2'
p4305
g4295
I27
tp4306
a(S'toppage_handler:content_types_provided/2'
p4307
S'/Users/artemeff/Work/lapka/monitoring/deps/cowboy/examples/rest_stream_response/src/toppage_handler.erl'
p4308
I17
tp4309
a(S'toppage_handler:create_paste/2'
p4310
g4295
I48
tp4311
a(S'toppage_handler:handle/2'
p4312
S'/Users/artemeff/Work/lapka/monitoring/deps/bullet/examples/clock/src/toppage_handler.erl'
p4313
I13
tp4314
a(S'toppage_handler:handle/2'
p4315
S'/Users/artemeff/Work/lapka/monitoring/deps/cowboy/examples/chunked_hello_world/src/toppage_handler.erl'
p4316
I13
tp4317
a(S'toppage_handler:handle/2'
p4318
S'/Users/artemeff/Work/lapka/monitoring/deps/cowboy/examples/compress_response/src/toppage_handler.erl'
p4319
I13
tp4320
a(S'toppage_handler:handle/2'
p4321
S'/Users/artemeff/Work/lapka/monitoring/deps/cowboy/examples/cookie/src/toppage_handler.erl'
p4322
I13
tp4323
a(S'toppage_handler:handle/2'
p4324
S'/Users/artemeff/Work/lapka/monitoring/deps/cowboy/examples/echo_get/src/toppage_handler.erl'
p4325
I13
tp4326
a(S'toppage_handler:handle/2'
p4327
S'/Users/artemeff/Work/lapka/monitoring/deps/cowboy/examples/echo_post/src/toppage_handler.erl'
p4328
I13
tp4329
a(S'toppage_handler:handle/2'
p4330
S'/Users/artemeff/Work/lapka/monitoring/deps/cowboy/examples/hello_world/src/toppage_handler.erl'
p4331
I13
tp4332
a(S'toppage_handler:handle/2'
p4333
S'/Users/artemeff/Work/lapka/monitoring/deps/cowboy/examples/ssl_hello_world/src/toppage_handler.erl'
p4334
I13
tp4335
a(S'toppage_handler:hello_to_html/2'
p4336
g4303
I22
tp4337
a(S'toppage_handler:hello_to_json/2'
p4338
g4303
I34
tp4339
a(S'toppage_handler:hello_to_text/2'
p4340
g4303
I38
tp4341
a(S'toppage_handler:init/3'
p4342
g4313
I10
tp4343
a(S'toppage_handler:init/3'
p4344
g4316
I10
tp4345
a(S'toppage_handler:init/3'
p4346
g4319
I10
tp4347
a(S'toppage_handler:init/3'
p4348
g4322
I10
tp4349
a(S'toppage_handler:init/3'
p4350
g4325
I10
tp4351
a(S'toppage_handler:init/3'
p4352
g4328
I10
tp4353
a(S'toppage_handler:init/3'
p4354
g4331
I10
tp4355
a(S'toppage_handler:init/3'
p4356
g4300
I11
tp4357
a(S'toppage_handler:init/3'
p4358
g4303
I12
tp4359
a(S'toppage_handler:init/3'
p4360
g4295
I18
tp4361
a(S'toppage_handler:init/3'
p4362
g4308
I11
tp4363
a(S'toppage_handler:init/3'
p4364
g4334
I10
tp4365
a(S'toppage_handler:is_authorized/2'
p4366
g4300
I14
tp4367
a(S'toppage_handler:paste_html/2'
p4368
g4295
I59
tp4369
a(S'toppage_handler:paste_text/2'
p4370
g4295
I65
tp4371
a(S'toppage_handler:resource_exists/2'
p4372
g4295
I37
tp4373
a(S'toppage_handler:rest_init/2'
p4374
g4308
I14
tp4375
a(S'toppage_handler:streaming_csv/2'
p4376
g4308
I22
tp4377
a(S'toppage_handler:terminate/3'
p4378
g4313
I106
tp4379
a(S'toppage_handler:terminate/3'
p4380
g4316
I22
tp4381
a(S'toppage_handler:terminate/3'
p4382
g4319
I30
tp4383
a(S'toppage_handler:terminate/3'
p4384
g4322
I28
tp4385
a(S'toppage_handler:terminate/3'
p4386
g4325
I29
tp4387
a(S'toppage_handler:terminate/3'
p4388
g4328
I36
tp4389
a(S'toppage_handler:terminate/3'
p4390
g4331
I19
tp4391
a(S'toppage_handler:terminate/3'
p4392
g4334
I19
tp4393
a(S'toppage_handler:to_text/2'
p4394
g4300
I28
tp4395
a(S'trap_exit_protocol:init/4'
p4396
S'/Users/artemeff/Work/lapka/monitoring/deps/ranch/test/trap_exit_protocol.erl'
p4397
I11
tp4398
a(S'trap_exit_protocol:start_link/4'
p4399
g4397
I7
tp4400
a(S'trunc_io_eqc:check/0'
p4401
S'/Users/artemeff/Work/lapka/monitoring/deps/lager/test/trunc_io_eqc.erl'
p4402
I57
tp4403
a(S'trunc_io_eqc:prop_equivalence/0'
p4404
g4402
I197
tp4405
a(S'trunc_io_eqc:prop_format/0'
p4406
g4402
I158
tp4407
a(S'trunc_io_eqc:test/0'
p4408
g4402
I51
tp4409
a(S'trunc_io_eqc:test/1'
p4410
g4402
I54
tp4411
a(S'ultimate_handler:allow_missing_post/2'
p4412
S'/Users/artemeff/Work/lapka/monitoring/apps/api/src/handlers/ultimate_handler.erl'
p4413
I19
tp4414
a(S'ultimate_handler:allowed_methods/2'
p4415
g4413
I18
tp4416
a(S'ultimate_handler:content_types_accepted/2'
p4417
g4413
I25
tp4418
a(S'ultimate_handler:content_types_provided/2'
p4419
g4413
I21
tp4420
a(S'ultimate_handler:from_form/2'
p4421
g4413
I47
tp4422
a(S'ultimate_handler:from_json/2'
p4423
g4413
I48
tp4424
a(S'ultimate_handler:init/3'
p4425
g4413
I17
tp4426
a(S'ultimate_handler:is_authorized/2'
p4427
g4413
I35
tp4428
a(S'ultimate_handler:resource_exists/2'
p4429
g4413
I29
tp4430
a(S'ultimate_handler:to_html/2'
p4431
g4413
I50
tp4432
a(S'ultimate_handler:to_json/2'
p4433
g4413
I51
tp4434
a(S'ultimate_report_handler:handle/2'
p4435
S'/Users/artemeff/Work/lapka/monitoring/apps/web/src/handlers/ultimate_report_handler.erl'
p4436
I10
tp4437
a(S'ultimate_report_handler:init/3'
p4438
g4436
I8
tp4439
a(S'ultimate_report_handler:terminate/3'
p4440
g4436
I9
tp4441
a(S'ultimate_ws_handler:info/3'
p4442
S'/Users/artemeff/Work/lapka/monitoring/apps/web/src/handlers/ultimate_ws_handler.erl'
p4443
I19
tp4444
a(S'ultimate_ws_handler:init/4'
p4445
g4443
I10
tp4446
a(S'ultimate_ws_handler:stream/3'
p4447
g4443
I13
tp4448
a(S'ultimate_ws_handler:terminate/2'
p4449
g4443
I24
tp4450
a(S'upload_app:start/2'
p4451
S'/Users/artemeff/Work/lapka/monitoring/deps/cowboy/examples/upload/src/upload_app.erl'
p4452
I12
tp4453
a(S'upload_app:stop/1'
p4454
g4452
I24
tp4455
a(S'upload_handler:handle/2'
p4456
S'/Users/artemeff/Work/lapka/monitoring/deps/cowboy/examples/upload/src/upload_handler.erl'
p4457
I11
tp4458
a(S'upload_handler:init/3'
p4459
g4457
I8
tp4460
a(S'upload_handler:terminate/3'
p4461
g4457
I20
tp4462
a(S'upload_sup:init/1'
p4463
S'/Users/artemeff/Work/lapka/monitoring/deps/cowboy/examples/upload/src/upload_sup.erl'
p4464
I21
tp4465
a(S'upload_sup:start_link/0'
p4466
g4464
I16
tp4467
a(S'util:chunk_list/2'
p4468
S'/Users/artemeff/Work/lapka/monitoring/apps/util/src/util.erl'
p4469
I90
tp4470
a(S'util:chunk_list/3'
p4471
g4469
I92
tp4472
a(S'util:date_format/1'
p4473
g4469
I124
tp4474
a(S'util:filter_params/2'
p4475
g4469
I78
tp4476
a(S'util:flat_array_to_tuple/1'
p4477
g4469
I107
tp4478
a(S'util:generate_rstr/1'
p4479
g4469
I62
tp4480
a(S'util:get_env/1'
p4481
g4469
I51
tp4482
a(S'util:params_to_hstore/1'
p4483
g4469
I73
tp4484
a(S'util:parse_token_auth/1'
p4485
g4469
I112
tp4486
a(S'util:remove_escaping/1'
p4487
g4469
I117
tp4488
a(S'util:seconds_in/1'
p4489
g4469
I131
tp4490
a(S'util:start/0'
p4491
g4469
I26
tp4492
a(S'util:start/1'
p4493
g4469
I27
tp4494
a(S'util:stop/0'
p4495
g4469
I40
tp4496
a(S'util:timestamp/0'
p4497
g4469
I120
tp4498
a(S'util_app:start/2'
p4499
S'/Users/artemeff/Work/lapka/monitoring/apps/util/src/util_app.erl'
p4500
I7
tp4501
a(S'util_app:stop/1'
p4502
g4500
I10
tp4503
a(S'util_hooks:onrequest/1'
p4504
S'/Users/artemeff/Work/lapka/monitoring/apps/util/src/util_hooks.erl'
p4505
I6
tp4506
a(S'util_hooks:onresponse/4'
p4507
g4505
I10
tp4508
a(S'util_psql_worker:code_change/3'
p4509
S'/Users/artemeff/Work/lapka/monitoring/apps/util/src/util_psql_worker.erl'
p4510
I38
tp4511
a(S'util_psql_worker:handle_call/3'
p4512
g4510
I32
tp4513
a(S'util_psql_worker:handle_cast/2'
p4514
g4510
I35
tp4515
a(S'util_psql_worker:handle_info/2'
p4516
g4510
I36
tp4517
a(S'util_psql_worker:init/1'
p4518
g4510
I17
tp4519
a(S'util_psql_worker:start_link/1'
p4520
g4510
I15
tp4521
a(S'util_psql_worker:terminate/2'
p4522
g4510
I37
tp4523
a(S'util_sql:auth/1'
p4524
S'/Users/artemeff/Work/lapka/monitoring/apps/util/src/util_sql.erl'
p4525
I14
tp4526
a(S'util_sql:equery/2'
p4527
g4525
I77
tp4528
a(S'util_sql:equery/3'
p4529
g4525
I80
tp4530
a(S'util_sql:last_measure_ts/0'
p4531
g4525
I20
tp4532
a(S'util_sql:report_by_interval/4'
p4533
g4525
I28
tp4534
a(S'util_sql:result_to_agg/1'
p4535
g4525
I92
tp4536
a(S'util_sql:result_to_proplist/1'
p4537
g4525
I85
tp4538
a(S'util_sql:squery/1'
p4539
g4525
I68
tp4540
a(S'util_sql:squery/2'
p4541
g4525
I71
tp4542
a(S'util_sup:init/1'
p4543
S'/Users/artemeff/Work/lapka/monitoring/apps/util/src/util_sup.erl'
p4544
I11
tp4545
a(S'util_sup:start_link/0'
p4546
g4544
I8
tp4547
a(S'util_type:apply_fun/2'
p4548
S'/Users/artemeff/Work/lapka/monitoring/apps/util/src/util_type.erl'
p4549
I10
tp4550
a(S'util_type:atom/1'
p4551
g4549
I14
tp4552
a(S'util_type:binary/1'
p4553
g4549
I12
tp4554
a(S'util_type:float/1'
p4555
g4549
I21
tp4556
a(S'util_type:integer/1'
p4557
g4549
I29
tp4558
a(S'web_app:start/2'
p4559
S'/Users/artemeff/Work/lapka/monitoring/apps/web/src/web_app.erl'
p4560
I8
tp4561
a(S'web_app:stop/1'
p4562
g4560
I19
tp4563
a(S'web_server_app:start/2'
p4564
S'/Users/artemeff/Work/lapka/monitoring/deps/cowboy/examples/web_server/src/web_server_app.erl'
p4565
I13
tp4566
a(S'web_server_app:stop/1'
p4567
g4565
I28
tp4568
a(S'web_server_sup:init/1'
p4569
S'/Users/artemeff/Work/lapka/monitoring/deps/cowboy/examples/web_server/src/web_server_sup.erl'
p4570
I21
tp4571
a(S'web_server_sup:start_link/0'
p4572
g4570
I16
tp4573
a(S'web_sup:init/1'
p4574
S'/Users/artemeff/Work/lapka/monitoring/apps/web/src/web_sup.erl'
p4575
I11
tp4576
a(S'web_sup:start_link/0'
p4577
g4575
I8
tp4578
a(S'webserver:accept_connection/4'
p4579
S'/Users/artemeff/Work/lapka/monitoring/deps/lhttpc/test/webserver.erl'
p4580
I41
tp4581
a(S'webserver:read_chunked/3'
p4582
g4580
I46
tp4583
a(S'webserver:start/2'
p4584
g4580
I36
tp4585
a(S'websocket_app:start/2'
p4586
S'/Users/artemeff/Work/lapka/monitoring/deps/cowboy/examples/websocket/src/websocket_app.erl'
p4587
I12
tp4588
a(S'websocket_app:stop/1'
p4589
g4587
I24
tp4590
a(S'websocket_sup:init/1'
p4591
S'/Users/artemeff/Work/lapka/monitoring/deps/cowboy/examples/websocket/src/websocket_sup.erl'
p4592
I21
tp4593
a(S'websocket_sup:start_link/0'
p4594
g4592
I16
tp4595
a(S'ws_echo:init/3'
p4596
S'/Users/artemeff/Work/lapka/monitoring/deps/cowboy/test/ws_SUITE_data/ws_echo.erl'
p4597
I9
tp4598
a(S'ws_echo:websocket_handle/3'
p4599
g4597
I16
tp4600
a(S'ws_echo:websocket_info/3'
p4601
g4597
I23
tp4602
a(S'ws_echo:websocket_init/3'
p4603
g4597
I12
tp4604
a(S'ws_echo:websocket_terminate/3'
p4605
g4597
I26
tp4606
a(S'ws_echo_timer:init/3'
p4607
S'/Users/artemeff/Work/lapka/monitoring/deps/cowboy/test/ws_SUITE_data/ws_echo_timer.erl'
p4608
I9
tp4609
a(S'ws_echo_timer:websocket_handle/3'
p4610
g4608
I17
tp4611
a(S'ws_echo_timer:websocket_info/3'
p4612
g4608
I24
tp4613
a(S'ws_echo_timer:websocket_init/3'
p4614
g4608
I12
tp4615
a(S'ws_echo_timer:websocket_terminate/3'
p4616
g4608
I30
tp4617
a(S'ws_handler:init/3'
p4618
S'/Users/artemeff/Work/lapka/monitoring/deps/cowboy/examples/websocket/src/ws_handler.erl'
p4619
I10
tp4620
a(S'ws_handler:websocket_handle/3'
p4621
g4619
I17
tp4622
a(S'ws_handler:websocket_info/3'
p4623
g4619
I22
tp4624
a(S'ws_handler:websocket_init/3'
p4625
g4619
I13
tp4626
a(S'ws_handler:websocket_terminate/3'
p4627
g4619
I28
tp4628
a(S'ws_init_shutdown:init/3'
p4629
S'/Users/artemeff/Work/lapka/monitoring/deps/cowboy/test/ws_SUITE_data/ws_init_shutdown.erl'
p4630
I9
tp4631
a(S'ws_init_shutdown:websocket_handle/3'
p4632
g4630
I16
tp4633
a(S'ws_init_shutdown:websocket_info/3'
p4634
g4630
I19
tp4635
a(S'ws_init_shutdown:websocket_init/3'
p4636
g4630
I12
tp4637
a(S'ws_init_shutdown:websocket_terminate/3'
p4638
g4630
I22
tp4639
a(S'ws_send_many:init/3'
p4640
S'/Users/artemeff/Work/lapka/monitoring/deps/cowboy/test/ws_SUITE_data/ws_send_many.erl'
p4641
I12
tp4642
a(S'ws_send_many:websocket_handle/3'
p4643
g4641
I20
tp4644
a(S'ws_send_many:websocket_info/3'
p4645
g4641
I23
tp4646
a(S'ws_send_many:websocket_init/3'
p4647
g4641
I15
tp4648
a(S'ws_send_many:websocket_terminate/3'
p4649
g4641
I26
tp4650
a(S'ws_timeout_cancel:init/3'
p4651
S'/Users/artemeff/Work/lapka/monitoring/deps/cowboy/test/ws_SUITE_data/ws_timeout_cancel.erl'
p4652
I9
tp4653
a(S'ws_timeout_cancel:websocket_handle/3'
p4654
g4652
I16
tp4655
a(S'ws_timeout_cancel:websocket_info/3'
p4656
g4652
I21
tp4657
a(S'ws_timeout_cancel:websocket_init/3'
p4658
g4652
I12
tp4659
a(S'ws_timeout_cancel:websocket_terminate/3'
p4660
g4652
I25
tp4661
a(S'ws_timeout_hibernate:init/3'
p4662
S'/Users/artemeff/Work/lapka/monitoring/deps/cowboy/test/ws_SUITE_data/ws_timeout_hibernate.erl'
p4663
I9
tp4664
a(S'ws_timeout_hibernate:websocket_handle/3'
p4665
g4663
I15
tp4666
a(S'ws_timeout_hibernate:websocket_info/3'
p4667
g4663
I18
tp4668
a(S'ws_timeout_hibernate:websocket_init/3'
p4669
g4663
I12
tp4670
a(S'ws_timeout_hibernate:websocket_terminate/3'
p4671
g4663
I21
tp4672
a(S'ws_upgrade_with_opts:init/3'
p4673
S'/Users/artemeff/Work/lapka/monitoring/deps/cowboy/test/ws_SUITE_data/ws_upgrade_with_opts.erl'
p4674
I12
tp4675
a(S'ws_upgrade_with_opts:websocket_handle/3'
p4676
g4674
I20
tp4677
a(S'ws_upgrade_with_opts:websocket_info/3'
p4678
g4674
I0
tp4679
a(S'ws_upgrade_with_opts:websocket_init/3'
p4680
g4674
I15
tp4681
a(S'ws_upgrade_with_opts:websocket_terminate/3'
p4682
g4674
I27
tp4683
a.